
P:/ECSE324/G12_Lab2/getting_started.axf:     file format elf32-littlearm


Disassembly of section .text:

00000000 <__cs3_interrupt_vector>:
       0:	18 f0 9f e5 18 f0 9f e5 18 f0 9f e5 18 f0 9f e5     ................
      10:	18 f0 9f e5 18 f0 9f e5 18 f0 9f e5 18 f0 9f e5     ................
      20:	40 00 00 00 6c ae 00 00 70 ae 00 00 74 ae 00 00     @...l...p...t...
      30:	78 ae 00 00 68 ae 00 00 7c ae 00 00 80 ae 00 00     x...h...|.......

00000040 <__cs3_reset>:
      40:	ea000026 	b	e0 <__cs3_start_asm_sim>

00000044 <__cs3_start_c>:
      44:	e59f608c 	ldr	r6, [pc, #140]	; d8 <__cs3_start_c+0x94>
      48:	e3560000 	cmp	r6, #0
      4c:	e92d4080 	push	{r7, lr}
      50:	e2466001 	sub	r6, r6, #1
      54:	0a00001e 	beq	d4 <__cs3_start_c+0x90>
      58:	e59f507c 	ldr	r5, [pc, #124]	; dc <__cs3_start_c+0x98>
      5c:	e3a00000 	mov	r0, #0
      60:	e3a01000 	mov	r1, #0
      64:	e515200c 	ldr	r2, [r5, #-12]
      68:	e515e010 	ldr	lr, [r5, #-16]
      6c:	e5154008 	ldr	r4, [r5, #-8]
      70:	e15e0002 	cmp	lr, r2
      74:	00822004 	addeq	r2, r2, r4
      78:	0a000009 	beq	a4 <__cs3_start_c+0x60>
      7c:	e3540000 	cmp	r4, #0
      80:	0a000007 	beq	a4 <__cs3_start_c+0x60>
      84:	e1a07002 	mov	r7, r2
      88:	e1a0c002 	mov	r12, r2
      8c:	e8be000c 	ldm	lr!, {r2, r3}
      90:	e8ac000c 	stmia	r12!, {r2, r3}
      94:	e067300c 	rsb	r3, r7, r12
      98:	e1540003 	cmp	r4, r3
      9c:	e1a0200c 	mov	r2, r12
      a0:	1afffff9 	bne	8c <__cs3_start_c+0x48>
      a4:	e515e004 	ldr	lr, [r5, #-4]
      a8:	e35e0000 	cmp	lr, #0
      ac:	11a03002 	movne	r3, r2
      b0:	0a000003 	beq	c4 <__cs3_start_c+0x80>
      b4:	e8a30003 	stmia	r3!, {r0, r1}
      b8:	e062c003 	rsb	r12, r2, r3
      bc:	e15e000c 	cmp	lr, r12
      c0:	1afffffb 	bne	b4 <__cs3_start_c+0x70>
      c4:	e2466001 	sub	r6, r6, #1
      c8:	e3760001 	cmn	r6, #1
      cc:	e2855014 	add	r5, r5, #20
      d0:	1affffe3 	bne	64 <__cs3_start_c+0x20>
      d4:	eb0029c6 	bl	a7f4 <__cs3_premain>
      d8:	00000001 	.word	0x00000001
      dc:	0000b168 	.word	0x0000b168

000000e0 <__cs3_start_asm_sim>:
      e0:	e28f103c 	add	r1, pc, #60	; 0x3c
      e4:	e3a00016 	mov	r0, #22
      e8:	ef123456 	svc	0x00123456
      ec:	e3500000 	cmp	r0, #0
      f0:	ba000008 	blt	118 <__cs3_region_zero_size_ram+0x8>
      f4:	e59f2028 	ldr	r2, [pc, #40]	; 124 <__cs3_heap_start_ptr>
      f8:	e59fd01c 	ldr	sp, [pc, #28]	; 11c <__cs3_region_zero_size_ram+0xc>
      fc:	e5920008 	ldr	r0, [r2, #8]
     100:	e3500000 	cmp	r0, #0
     104:	11a0d000 	movne	sp, r0
     108:	e59f1010 	ldr	r1, [pc, #16]	; 120 <__cs3_region_zero_size_ram+0x10>
     10c:	e5920004 	ldr	r0, [r2, #4]
     110:	e3500000 	cmp	r0, #0
     114:	15810000 	strne	r0, [r1]
     118:	eaffffc9 	b	44 <__cs3_start_c>
     11c:	3ffffff8 	.word	0x3ffffff8
     120:	0000ba30 	.word	0x0000ba30

00000124 <__cs3_heap_start_ptr>:
     124:	0000bb48 	.word	0x0000bb48

00000128 <_start>:
     128:	e51fd000 	ldr	sp, [pc, #-0]	; 130 <_start+0x8>
     12c:	eaffffc4 	b	44 <__cs3_start_c>
     130:	3ffffff8 	.word	0x3ffffff8

00000134 <deregister_tm_clones>:
     134:	e92d4008 	push	{r3, lr}
     138:	e59f002c 	ldr	r0, [pc, #44]	; 16c <deregister_tm_clones+0x38>
     13c:	e59f302c 	ldr	r3, [pc, #44]	; 170 <deregister_tm_clones+0x3c>
     140:	e0603003 	rsb	r3, r0, r3
     144:	e3530006 	cmp	r3, #6
     148:	8a000001 	bhi	154 <deregister_tm_clones+0x20>
     14c:	e8bd4008 	pop	{r3, lr}
     150:	e12fff1e 	bx	lr
     154:	e59f3018 	ldr	r3, [pc, #24]	; 174 <deregister_tm_clones+0x40>
     158:	e3530000 	cmp	r3, #0
     15c:	0afffffa 	beq	14c <deregister_tm_clones+0x18>
     160:	e1a0e00f 	mov	lr, pc
     164:	e12fff13 	bx	r3
     168:	eafffff7 	b	14c <deregister_tm_clones+0x18>
     16c:	0000ba38 	.word	0x0000ba38
     170:	0000ba3b 	.word	0x0000ba3b
     174:	00000000 	.word	0x00000000

00000178 <register_tm_clones>:
     178:	e92d4008 	push	{r3, lr}
     17c:	e59f0034 	ldr	r0, [pc, #52]	; 1b8 <register_tm_clones+0x40>
     180:	e59f3034 	ldr	r3, [pc, #52]	; 1bc <register_tm_clones+0x44>
     184:	e0603003 	rsb	r3, r0, r3
     188:	e1a03143 	asr	r3, r3, #2
     18c:	e0833fa3 	add	r3, r3, r3, lsr #31
     190:	e1b010c3 	asrs	r1, r3, #1
     194:	1a000001 	bne	1a0 <register_tm_clones+0x28>
     198:	e8bd4008 	pop	{r3, lr}
     19c:	e12fff1e 	bx	lr
     1a0:	e59f2018 	ldr	r2, [pc, #24]	; 1c0 <register_tm_clones+0x48>
     1a4:	e3520000 	cmp	r2, #0
     1a8:	0afffffa 	beq	198 <register_tm_clones+0x20>
     1ac:	e1a0e00f 	mov	lr, pc
     1b0:	e12fff12 	bx	r2
     1b4:	eafffff7 	b	198 <register_tm_clones+0x20>
     1b8:	0000ba38 	.word	0x0000ba38
     1bc:	0000ba38 	.word	0x0000ba38
     1c0:	00000000 	.word	0x00000000

000001c4 <__do_global_dtors_aux>:
     1c4:	e92d4010 	push	{r4, lr}
     1c8:	e59f402c 	ldr	r4, [pc, #44]	; 1fc <__do_global_dtors_aux+0x38>
     1cc:	e5d43000 	ldrb	r3, [r4]
     1d0:	e3530000 	cmp	r3, #0
     1d4:	1a000006 	bne	1f4 <__do_global_dtors_aux+0x30>
     1d8:	ebffffd5 	bl	134 <deregister_tm_clones>
     1dc:	e59f301c 	ldr	r3, [pc, #28]	; 200 <__do_global_dtors_aux+0x3c>
     1e0:	e3530000 	cmp	r3, #0
     1e4:	159f0018 	ldrne	r0, [pc, #24]	; 204 <__do_global_dtors_aux+0x40>
     1e8:	1320f000 	nopne	{0}
     1ec:	e3a03001 	mov	r3, #1
     1f0:	e5c43000 	strb	r3, [r4]
     1f4:	e8bd4010 	pop	{r4, lr}
     1f8:	e12fff1e 	bx	lr
     1fc:	0000ba38 	.word	0x0000ba38
     200:	00000000 	.word	0x00000000
     204:	0000af1c 	.word	0x0000af1c

00000208 <frame_dummy>:
     208:	e92d4008 	push	{r3, lr}
     20c:	e59f3034 	ldr	r3, [pc, #52]	; 248 <frame_dummy+0x40>
     210:	e3530000 	cmp	r3, #0
     214:	159f0030 	ldrne	r0, [pc, #48]	; 24c <frame_dummy+0x44>
     218:	159f1030 	ldrne	r1, [pc, #48]	; 250 <frame_dummy+0x48>
     21c:	1320f000 	nopne	{0}
     220:	e59f002c 	ldr	r0, [pc, #44]	; 254 <frame_dummy+0x4c>
     224:	e5903000 	ldr	r3, [r0]
     228:	e3530000 	cmp	r3, #0
     22c:	0a000003 	beq	240 <frame_dummy+0x38>
     230:	e59f3020 	ldr	r3, [pc, #32]	; 258 <frame_dummy+0x50>
     234:	e3530000 	cmp	r3, #0
     238:	11a0e00f 	movne	lr, pc
     23c:	112fff13 	bxne	r3
     240:	e8bd4008 	pop	{r3, lr}
     244:	eaffffcb 	b	178 <register_tm_clones>
     248:	00000000 	.word	0x00000000
     24c:	0000af1c 	.word	0x0000af1c
     250:	0000ba3c 	.word	0x0000ba3c
     254:	0000b168 	.word	0x0000b168
     258:	00000000 	.word	0x00000000

0000025c <main>:
#include "address_map_arm.h"

int main(void)
{
     25c:	e92d41f0 	push	{r4, r5, r6, r7, r8, lr}
     260:	e24dd018 	sub	sp, sp, #24
	int a[5] = {1,20,3,4,5};
     264:	e28de004 	add	lr, sp, #4
     268:	e30acf28 	movw	r12, #44840	; 0xaf28
     26c:	e340c000 	movt	r12, #0
     270:	e8bc000f 	ldm	r12!, {r0, r1, r2, r3}
     274:	e8ae000f 	stmia	lr!, {r0, r1, r2, r3}
     278:	e59c3000 	ldr	r3, [r12]
     27c:	e58e3000 	str	r3, [lr]
	int max_val = a[0];
     280:	e1a07000 	mov	r7, r0
#include "address_map_arm.h"

int main(void)
     284:	e1a0400d 	mov	r4, sp
     288:	e28d8010 	add	r8, sp, #16
{
	int a[5] = {1,20,3,4,5};
	int max_val = a[0];
	int i;
	for(i = 1; i < sizeof(a)/sizeof(a[0]); i++){
		if(max_val < MAX_2(a[i-1],a[i])){
     28c:	e5b46004 	ldr	r6, [r4, #4]!
     290:	e5945004 	ldr	r5, [r4, #4]
     294:	e1a00006 	mov	r0, r6
     298:	e1a01005 	mov	r1, r5
     29c:	eb00000e 	bl	2dc <MAX_2>
     2a0:	e1500007 	cmp	r0, r7
     2a4:	da000003 	ble	2b8 <main+0x5c>
			max_val = MAX_2(a[i-1],a[i]);
     2a8:	e1a00006 	mov	r0, r6
     2ac:	e1a01005 	mov	r1, r5
     2b0:	eb000009 	bl	2dc <MAX_2>
     2b4:	e1a07000 	mov	r7, r0
int main(void)
{
	int a[5] = {1,20,3,4,5};
	int max_val = a[0];
	int i;
	for(i = 1; i < sizeof(a)/sizeof(a[0]); i++){
     2b8:	e1540008 	cmp	r4, r8
     2bc:	1afffff2 	bne	28c <main+0x30>
		if(max_val < MAX_2(a[i-1],a[i])){
			max_val = MAX_2(a[i-1],a[i]);
		}
	}
	printf("%d", max_val);
     2c0:	e30a0f3c 	movw	r0, #44860	; 0xaf3c
     2c4:	e3400000 	movt	r0, #0
     2c8:	e1a01007 	mov	r1, r7
     2cc:	eb000028 	bl	374 <printf>
	return max_val;
}
     2d0:	e1a00007 	mov	r0, r7
     2d4:	e28dd018 	add	sp, sp, #24
     2d8:	e8bd81f0 	pop	{r4, r5, r6, r7, r8, pc}

000002dc <MAX_2>:
		.text
		.global MAX_2

MAX_2:
		CMP R0, R1
     2dc:	e1500001 	cmp	r0, r1
		BXGE LR
     2e0:	a12fff1e 	bxge	lr
		MOV R0, R1
     2e4:	e1a00001 	mov	r0, r1
		BX LR
     2e8:	e12fff1e 	bx	lr

000002ec <atexit>:
     2ec:	e1a01000 	mov	r1, r0
     2f0:	e3a00000 	mov	r0, #0
     2f4:	e92d4008 	push	{r3, lr}
     2f8:	e1a02000 	mov	r2, r0
     2fc:	e1a03000 	mov	r3, r0
     300:	eb0008d9 	bl	266c <__register_exitproc>
     304:	e8bd4008 	pop	{r3, lr}
     308:	e12fff1e 	bx	lr

0000030c <exit>:
     30c:	e92d4008 	push	{r3, lr}
     310:	e3a01000 	mov	r1, #0
     314:	e1a04000 	mov	r4, r0
     318:	eb000910 	bl	2760 <__call_exitprocs>
     31c:	e59f3018 	ldr	r3, [pc, #24]	; 33c <exit+0x30>
     320:	e5930000 	ldr	r0, [r3]
     324:	e590303c 	ldr	r3, [r0, #60]	; 0x3c
     328:	e3530000 	cmp	r3, #0
     32c:	11a0e00f 	movne	lr, pc
     330:	112fff13 	bxne	r3
     334:	e1a00004 	mov	r0, r4
     338:	eb00295e 	bl	a8b8 <_exit>
     33c:	0000af40 	.word	0x0000af40

00000340 <_printf_r>:
     340:	e92d000e 	push	{r1, r2, r3}
     344:	e52de004 	push	{lr}		; (str lr, [sp, #-4]!)
     348:	e24dd008 	sub	sp, sp, #8
     34c:	e28dc010 	add	r12, sp, #16
     350:	e5901008 	ldr	r1, [r0, #8]
     354:	e59d200c 	ldr	r2, [sp, #12]
     358:	e1a0300c 	mov	r3, r12
     35c:	e58dc004 	str	r12, [sp, #4]
     360:	eb000013 	bl	3b4 <_vfprintf_r>
     364:	e28dd008 	add	sp, sp, #8
     368:	e49de004 	pop	{lr}		; (ldr lr, [sp], #4)
     36c:	e28dd00c 	add	sp, sp, #12
     370:	e12fff1e 	bx	lr

00000374 <printf>:
     374:	e92d000f 	push	{r0, r1, r2, r3}
     378:	e52de004 	push	{lr}		; (str lr, [sp, #-4]!)
     37c:	e59f302c 	ldr	r3, [pc, #44]	; 3b0 <printf+0x3c>
     380:	e24dd00c 	sub	sp, sp, #12
     384:	e5930000 	ldr	r0, [r3]
     388:	e28dc014 	add	r12, sp, #20
     38c:	e5901008 	ldr	r1, [r0, #8]
     390:	e59d2010 	ldr	r2, [sp, #16]
     394:	e1a0300c 	mov	r3, r12
     398:	e58dc004 	str	r12, [sp, #4]
     39c:	eb000004 	bl	3b4 <_vfprintf_r>
     3a0:	e28dd00c 	add	sp, sp, #12
     3a4:	e49de004 	pop	{lr}		; (ldr lr, [sp], #4)
     3a8:	e28dd010 	add	sp, sp, #16
     3ac:	e12fff1e 	bx	lr
     3b0:	0000b170 	.word	0x0000b170

000003b4 <_vfprintf_r>:
     3b4:	e92d4ff0 	push	{r4, r5, r6, r7, r8, r9, r10, r11, lr}
     3b8:	e24ddd15 	sub	sp, sp, #1344	; 0x540
     3bc:	e24dd004 	sub	sp, sp, #4
     3c0:	e1a09001 	mov	r9, r1
     3c4:	e1a04002 	mov	r4, r2
     3c8:	e58d303c 	str	r3, [sp, #60]	; 0x3c
     3cc:	e58d002c 	str	r0, [sp, #44]	; 0x2c
     3d0:	eb001217 	bl	4c34 <_localeconv_r>
     3d4:	e5900000 	ldr	r0, [r0]
     3d8:	e58d0058 	str	r0, [sp, #88]	; 0x58
     3dc:	eb00198e 	bl	6a1c <strlen>
     3e0:	e59d602c 	ldr	r6, [sp, #44]	; 0x2c
     3e4:	e3a0b000 	mov	r11, #0
     3e8:	e3a0c000 	mov	r12, #0
     3ec:	e3560000 	cmp	r6, #0
     3f0:	e58d0064 	str	r0, [sp, #100]	; 0x64
     3f4:	e58db068 	str	r11, [sp, #104]	; 0x68
     3f8:	e58dc06c 	str	r12, [sp, #108]	; 0x6c
     3fc:	0a000002 	beq	40c <_vfprintf_r+0x58>
     400:	e5963038 	ldr	r3, [r6, #56]	; 0x38
     404:	e3530000 	cmp	r3, #0
     408:	0a000101 	beq	814 <_vfprintf_r+0x460>
     40c:	e1d980bc 	ldrh	r8, [r9, #12]
     410:	e3180a02 	tst	r8, #8192	; 0x2000
     414:	05993064 	ldreq	r3, [r9, #100]	; 0x64
     418:	03888a02 	orreq	r8, r8, #8192	; 0x2000
     41c:	03c33a02 	biceq	r3, r3, #8192	; 0x2000
     420:	01c980bc 	strheq	r8, [r9, #12]
     424:	05893064 	streq	r3, [r9, #100]	; 0x64
     428:	e3180008 	tst	r8, #8
     42c:	0a0000aa 	beq	6dc <_vfprintf_r+0x328>
     430:	e5993010 	ldr	r3, [r9, #16]
     434:	e3530000 	cmp	r3, #0
     438:	0a0000a7 	beq	6dc <_vfprintf_r+0x328>
     43c:	e208301a 	and	r3, r8, #26
     440:	e353000a 	cmp	r3, #10
     444:	0a0000c4 	beq	75c <_vfprintf_r+0x3a8>
     448:	e28d60d8 	add	r6, sp, #216	; 0xd8
     44c:	e28d70d7 	add	r7, sp, #215	; 0xd7
     450:	e3a03000 	mov	r3, #0
     454:	e28dbd05 	add	r11, sp, #320	; 0x140
     458:	e58d4028 	str	r4, [sp, #40]	; 0x28
     45c:	e0674006 	rsb	r4, r7, r6
     460:	e58d3044 	str	r3, [sp, #68]	; 0x44
     464:	e58d6054 	str	r6, [sp, #84]	; 0x54
     468:	e58d705c 	str	r7, [sp, #92]	; 0x5c
     46c:	e58db0a4 	str	r11, [sp, #164]	; 0xa4
     470:	e58d30ac 	str	r3, [sp, #172]	; 0xac
     474:	e58d30a8 	str	r3, [sp, #168]	; 0xa8
     478:	e58d3074 	str	r3, [sp, #116]	; 0x74
     47c:	e58d3070 	str	r3, [sp, #112]	; 0x70
     480:	e58d3034 	str	r3, [sp, #52]	; 0x34
     484:	e58d407c 	str	r4, [sp, #124]	; 0x7c
     488:	e58d901c 	str	r9, [sp, #28]
     48c:	e1a0c00b 	mov	r12, r11
     490:	e1a0500b 	mov	r5, r11
     494:	e59d6028 	ldr	r6, [sp, #40]	; 0x28
     498:	e5d63000 	ldrb	r3, [r6]
     49c:	e3530025 	cmp	r3, #37	; 0x25
     4a0:	13530000 	cmpne	r3, #0
     4a4:	0a0000dd 	beq	820 <_vfprintf_r+0x46c>
     4a8:	e2863001 	add	r3, r6, #1
     4ac:	e1a07003 	mov	r7, r3
     4b0:	e5d33000 	ldrb	r3, [r3]
     4b4:	e3530025 	cmp	r3, #37	; 0x25
     4b8:	13530000 	cmpne	r3, #0
     4bc:	e2873001 	add	r3, r7, #1
     4c0:	1afffff9 	bne	4ac <_vfprintf_r+0xf8>
     4c4:	e59dc028 	ldr	r12, [sp, #40]	; 0x28
     4c8:	e057800c 	subs	r8, r7, r12
     4cc:	0a00000d 	beq	508 <_vfprintf_r+0x154>
     4d0:	e28d40a8 	add	r4, sp, #168	; 0xa8
     4d4:	e8940050 	ldm	r4, {r4, r6}
     4d8:	e2844001 	add	r4, r4, #1
     4dc:	e0866008 	add	r6, r6, r8
     4e0:	e3540007 	cmp	r4, #7
     4e4:	e585c000 	str	r12, [r5]
     4e8:	e5858004 	str	r8, [r5, #4]
     4ec:	e58d60ac 	str	r6, [sp, #172]	; 0xac
     4f0:	e58d40a8 	str	r4, [sp, #168]	; 0xa8
     4f4:	d2855008 	addle	r5, r5, #8
     4f8:	ca000084 	bgt	710 <_vfprintf_r+0x35c>
     4fc:	e59d4034 	ldr	r4, [sp, #52]	; 0x34
     500:	e0844008 	add	r4, r4, r8
     504:	e58d4034 	str	r4, [sp, #52]	; 0x34
     508:	e5d73000 	ldrb	r3, [r7]
     50c:	e3530000 	cmp	r3, #0
     510:	0a000699 	beq	1f7c <_vfprintf_r+0x1bc8>
     514:	e2876001 	add	r6, r7, #1
     518:	e3a03000 	mov	r3, #0
     51c:	e58d6028 	str	r6, [sp, #40]	; 0x28
     520:	e5d78001 	ldrb	r8, [r7, #1]
     524:	e58d3030 	str	r3, [sp, #48]	; 0x30
     528:	e5cd3083 	strb	r3, [sp, #131]	; 0x83
     52c:	e58d3018 	str	r3, [sp, #24]
     530:	e3e04000 	mvn	r4, #0
     534:	e3a01020 	mov	r1, #32
     538:	e3a0202b 	mov	r2, #43	; 0x2b
     53c:	e1a03006 	mov	r3, r6
     540:	e2833001 	add	r3, r3, #1
     544:	e2480020 	sub	r0, r8, #32
     548:	e3500058 	cmp	r0, #88	; 0x58
     54c:	979ff100 	ldrls	pc, [pc, r0, lsl #2]
     550:	ea000224 	b	de8 <_vfprintf_r+0xa34>
     554:	00000e24 	.word	0x00000e24
     558:	00000de8 	.word	0x00000de8
     55c:	00000de8 	.word	0x00000de8
     560:	00000e3c 	.word	0x00000e3c
     564:	00000de8 	.word	0x00000de8
     568:	00000de8 	.word	0x00000de8
     56c:	00000de8 	.word	0x00000de8
     570:	00000de8 	.word	0x00000de8
     574:	00000de8 	.word	0x00000de8
     578:	00000de8 	.word	0x00000de8
     57c:	00000e50 	.word	0x00000e50
     580:	00000828 	.word	0x00000828
     584:	00000de8 	.word	0x00000de8
     588:	000006c8 	.word	0x000006c8
     58c:	00000834 	.word	0x00000834
     590:	00000de8 	.word	0x00000de8
     594:	00000880 	.word	0x00000880
     598:	00000894 	.word	0x00000894
     59c:	00000894 	.word	0x00000894
     5a0:	00000894 	.word	0x00000894
     5a4:	00000894 	.word	0x00000894
     5a8:	00000894 	.word	0x00000894
     5ac:	00000894 	.word	0x00000894
     5b0:	00000894 	.word	0x00000894
     5b4:	00000894 	.word	0x00000894
     5b8:	00000894 	.word	0x00000894
     5bc:	00000de8 	.word	0x00000de8
     5c0:	00000de8 	.word	0x00000de8
     5c4:	00000de8 	.word	0x00000de8
     5c8:	00000de8 	.word	0x00000de8
     5cc:	00000de8 	.word	0x00000de8
     5d0:	00000de8 	.word	0x00000de8
     5d4:	00000de8 	.word	0x00000de8
     5d8:	00000de8 	.word	0x00000de8
     5dc:	00000de8 	.word	0x00000de8
     5e0:	00000de8 	.word	0x00000de8
     5e4:	000008c4 	.word	0x000008c4
     5e8:	00000b00 	.word	0x00000b00
     5ec:	00000de8 	.word	0x00000de8
     5f0:	00000b00 	.word	0x00000b00
     5f4:	00000de8 	.word	0x00000de8
     5f8:	00000de8 	.word	0x00000de8
     5fc:	00000de8 	.word	0x00000de8
     600:	00000de8 	.word	0x00000de8
     604:	00000bb0 	.word	0x00000bb0
     608:	00000de8 	.word	0x00000de8
     60c:	00000de8 	.word	0x00000de8
     610:	00000bc4 	.word	0x00000bc4
     614:	00000de8 	.word	0x00000de8
     618:	00000de8 	.word	0x00000de8
     61c:	00000de8 	.word	0x00000de8
     620:	00000de8 	.word	0x00000de8
     624:	00000de8 	.word	0x00000de8
     628:	00000c14 	.word	0x00000c14
     62c:	00000de8 	.word	0x00000de8
     630:	00000de8 	.word	0x00000de8
     634:	00000c5c 	.word	0x00000c5c
     638:	00000de8 	.word	0x00000de8
     63c:	00000de8 	.word	0x00000de8
     640:	00000de8 	.word	0x00000de8
     644:	00000de8 	.word	0x00000de8
     648:	00000de8 	.word	0x00000de8
     64c:	00000de8 	.word	0x00000de8
     650:	00000de8 	.word	0x00000de8
     654:	00000de8 	.word	0x00000de8
     658:	00000de8 	.word	0x00000de8
     65c:	00000de8 	.word	0x00000de8
     660:	00000f58 	.word	0x00000f58
     664:	00000f00 	.word	0x00000f00
     668:	00000b00 	.word	0x00000b00
     66c:	00000b00 	.word	0x00000b00
     670:	00000b00 	.word	0x00000b00
     674:	00000f44 	.word	0x00000f44
     678:	00000f00 	.word	0x00000f00
     67c:	00000de8 	.word	0x00000de8
     680:	00000de8 	.word	0x00000de8
     684:	00000d40 	.word	0x00000d40
     688:	00000de8 	.word	0x00000de8
     68c:	00000d70 	.word	0x00000d70
     690:	00000da4 	.word	0x00000da4
     694:	00000f94 	.word	0x00000f94
     698:	00000cac 	.word	0x00000cac
     69c:	00000de8 	.word	0x00000de8
     6a0:	00000cc0 	.word	0x00000cc0
     6a4:	00000de8 	.word	0x00000de8
     6a8:	00000e78 	.word	0x00000e78
     6ac:	00000de8 	.word	0x00000de8
     6b0:	00000de8 	.word	0x00000de8
     6b4:	00000ec0 	.word	0x00000ec0
     6b8:	e59d6030 	ldr	r6, [sp, #48]	; 0x30
     6bc:	e2666000 	rsb	r6, r6, #0
     6c0:	e58d6030 	str	r6, [sp, #48]	; 0x30
     6c4:	e58d003c 	str	r0, [sp, #60]	; 0x3c
     6c8:	e59d7018 	ldr	r7, [sp, #24]
     6cc:	e3877004 	orr	r7, r7, #4
     6d0:	e58d7018 	str	r7, [sp, #24]
     6d4:	e5d38000 	ldrb	r8, [r3]
     6d8:	eaffff98 	b	540 <_vfprintf_r+0x18c>
     6dc:	e59d002c 	ldr	r0, [sp, #44]	; 0x2c
     6e0:	e1a01009 	mov	r1, r9
     6e4:	eb000792 	bl	2534 <__swsetup_r>
     6e8:	e3500000 	cmp	r0, #0
     6ec:	01d980bc 	ldrheq	r8, [r9, #12]
     6f0:	0affff51 	beq	43c <_vfprintf_r+0x88>
     6f4:	e3e0c000 	mvn	r12, #0
     6f8:	e58dc034 	str	r12, [sp, #52]	; 0x34
     6fc:	e59d0034 	ldr	r0, [sp, #52]	; 0x34
     700:	e28ddf51 	add	sp, sp, #324	; 0x144
     704:	e28ddb01 	add	sp, sp, #1024	; 0x400
     708:	e8bd4ff0 	pop	{r4, r5, r6, r7, r8, r9, r10, r11, lr}
     70c:	e12fff1e 	bx	lr
     710:	e59d002c 	ldr	r0, [sp, #44]	; 0x2c
     714:	e59d101c 	ldr	r1, [sp, #28]
     718:	e28d20a4 	add	r2, sp, #164	; 0xa4
     71c:	eb0018d6 	bl	6a7c <__sprint_r>
     720:	e3500000 	cmp	r0, #0
     724:	1a000007 	bne	748 <_vfprintf_r+0x394>
     728:	e28d5d05 	add	r5, sp, #320	; 0x140
     72c:	eaffff72 	b	4fc <_vfprintf_r+0x148>
     730:	e59d002c 	ldr	r0, [sp, #44]	; 0x2c
     734:	e59d101c 	ldr	r1, [sp, #28]
     738:	e28d20a4 	add	r2, sp, #164	; 0xa4
     73c:	eb0018ce 	bl	6a7c <__sprint_r>
     740:	e3500000 	cmp	r0, #0
     744:	0a0002d2 	beq	1294 <_vfprintf_r+0xee0>
     748:	e59d901c 	ldr	r9, [sp, #28]
     74c:	e1d930bc 	ldrh	r3, [r9, #12]
     750:	e3130040 	tst	r3, #64	; 0x40
     754:	1affffe6 	bne	6f4 <_vfprintf_r+0x340>
     758:	eaffffe7 	b	6fc <_vfprintf_r+0x348>
     75c:	e1d9c0be 	ldrh	r12, [r9, #14]
     760:	e31c0902 	tst	r12, #32768	; 0x8000
     764:	1affff37 	bne	448 <_vfprintf_r+0x94>
     768:	e1a02004 	mov	r2, r4
     76c:	e59f4fb0 	ldr	r4, [pc, #4016]	; 1724 <_vfprintf_r+0x1370>
     770:	e28dbd15 	add	r11, sp, #1344	; 0x540
     774:	e3c88002 	bic	r8, r8, #2
     778:	e18b80b4 	strh	r8, [r11, r4]
     77c:	e5997064 	ldr	r7, [r9, #100]	; 0x64
     780:	e599601c 	ldr	r6, [r9, #28]
     784:	e599a024 	ldr	r10, [r9, #36]	; 0x24
     788:	e2844002 	add	r4, r4, #2
     78c:	e3a0eb01 	mov	lr, #1024	; 0x400
     790:	e28d5d05 	add	r5, sp, #320	; 0x140
     794:	e18bc0b4 	strh	r12, [r11, r4]
     798:	e59d002c 	ldr	r0, [sp, #44]	; 0x2c
     79c:	e3a0c000 	mov	r12, #0
     7a0:	e28d10d8 	add	r1, sp, #216	; 0xd8
     7a4:	e59d303c 	ldr	r3, [sp, #60]	; 0x3c
     7a8:	e58d713c 	str	r7, [sp, #316]	; 0x13c
     7ac:	e58d60f4 	str	r6, [sp, #244]	; 0xf4
     7b0:	e58da0fc 	str	r10, [sp, #252]	; 0xfc
     7b4:	e58d50d8 	str	r5, [sp, #216]	; 0xd8
     7b8:	e58d50e8 	str	r5, [sp, #232]	; 0xe8
     7bc:	e58de0e0 	str	lr, [sp, #224]	; 0xe0
     7c0:	e58de0ec 	str	lr, [sp, #236]	; 0xec
     7c4:	e58dc0f0 	str	r12, [sp, #240]	; 0xf0
     7c8:	ebfffef9 	bl	3b4 <_vfprintf_r>
     7cc:	e3500000 	cmp	r0, #0
     7d0:	e58d0034 	str	r0, [sp, #52]	; 0x34
     7d4:	ba000006 	blt	7f4 <_vfprintf_r+0x440>
     7d8:	e59d002c 	ldr	r0, [sp, #44]	; 0x2c
     7dc:	e28d10d8 	add	r1, sp, #216	; 0xd8
     7e0:	eb000e70 	bl	41a8 <_fflush_r>
     7e4:	e59dc034 	ldr	r12, [sp, #52]	; 0x34
     7e8:	e3500000 	cmp	r0, #0
     7ec:	13e0c000 	mvnne	r12, #0
     7f0:	e58dc034 	str	r12, [sp, #52]	; 0x34
     7f4:	e59f3f28 	ldr	r3, [pc, #3880]	; 1724 <_vfprintf_r+0x1370>
     7f8:	e28d0d15 	add	r0, sp, #1344	; 0x540
     7fc:	e19030b3 	ldrh	r3, [r0, r3]
     800:	e3130040 	tst	r3, #64	; 0x40
     804:	11d930bc 	ldrhne	r3, [r9, #12]
     808:	13833040 	orrne	r3, r3, #64	; 0x40
     80c:	11c930bc 	strhne	r3, [r9, #12]
     810:	eaffffb9 	b	6fc <_vfprintf_r+0x348>
     814:	e1a00006 	mov	r0, r6
     818:	eb000f3c 	bl	4510 <__sinit>
     81c:	eafffefa 	b	40c <_vfprintf_r+0x58>
     820:	e59d7028 	ldr	r7, [sp, #40]	; 0x28
     824:	eaffff37 	b	508 <_vfprintf_r+0x154>
     828:	e5cd2083 	strb	r2, [sp, #131]	; 0x83
     82c:	e5d38000 	ldrb	r8, [r3]
     830:	eaffff42 	b	540 <_vfprintf_r+0x18c>
     834:	e1a0c003 	mov	r12, r3
     838:	e4dc8001 	ldrb	r8, [r12], #1
     83c:	e358002a 	cmp	r8, #42	; 0x2a
     840:	0a000717 	beq	24a4 <_vfprintf_r+0x20f0>
     844:	e2480030 	sub	r0, r8, #48	; 0x30
     848:	e3500009 	cmp	r0, #9
     84c:	81a0300c 	movhi	r3, r12
     850:	83a04000 	movhi	r4, #0
     854:	8affff3a 	bhi	544 <_vfprintf_r+0x190>
     858:	e3a04000 	mov	r4, #0
     85c:	e4dc8001 	ldrb	r8, [r12], #1
     860:	e0844104 	add	r4, r4, r4, lsl #2
     864:	e0804084 	add	r4, r0, r4, lsl #1
     868:	e2480030 	sub	r0, r8, #48	; 0x30
     86c:	e3500009 	cmp	r0, #9
     870:	e1a0300c 	mov	r3, r12
     874:	9afffff8 	bls	85c <_vfprintf_r+0x4a8>
     878:	e1844fc4 	orr	r4, r4, r4, asr #31
     87c:	eaffff30 	b	544 <_vfprintf_r+0x190>
     880:	e59dc018 	ldr	r12, [sp, #24]
     884:	e38cc080 	orr	r12, r12, #128	; 0x80
     888:	e58dc018 	str	r12, [sp, #24]
     88c:	e5d38000 	ldrb	r8, [r3]
     890:	eaffff2a 	b	540 <_vfprintf_r+0x18c>
     894:	e1a0c003 	mov	r12, r3
     898:	e3a00000 	mov	r0, #0
     89c:	e2483030 	sub	r3, r8, #48	; 0x30
     8a0:	e4dc8001 	ldrb	r8, [r12], #1
     8a4:	e2486030 	sub	r6, r8, #48	; 0x30
     8a8:	e0800100 	add	r0, r0, r0, lsl #2
     8ac:	e3560009 	cmp	r6, #9
     8b0:	e0830080 	add	r0, r3, r0, lsl #1
     8b4:	e1a0300c 	mov	r3, r12
     8b8:	9afffff7 	bls	89c <_vfprintf_r+0x4e8>
     8bc:	e58d0030 	str	r0, [sp, #48]	; 0x30
     8c0:	eaffff1f 	b	544 <_vfprintf_r+0x190>
     8c4:	e59d6018 	ldr	r6, [sp, #24]
     8c8:	e3866010 	orr	r6, r6, #16
     8cc:	e58d6018 	str	r6, [sp, #24]
     8d0:	e59d7018 	ldr	r7, [sp, #24]
     8d4:	e3170020 	tst	r7, #32
     8d8:	e58d3028 	str	r3, [sp, #40]	; 0x28
     8dc:	0a00018b 	beq	f10 <_vfprintf_r+0xb5c>
     8e0:	e59db03c 	ldr	r11, [sp, #60]	; 0x3c
     8e4:	e28b1007 	add	r1, r11, #7
     8e8:	e3c11007 	bic	r1, r1, #7
     8ec:	e891000c 	ldm	r1, {r2, r3}
     8f0:	e2811008 	add	r1, r1, #8
     8f4:	e58d103c 	str	r1, [sp, #60]	; 0x3c
     8f8:	e1a06002 	mov	r6, r2
     8fc:	e1a07003 	mov	r7, r3
     900:	e3520000 	cmp	r2, #0
     904:	e2d30000 	sbcs	r0, r3, #0
     908:	ba0004ae 	blt	1bc8 <_vfprintf_r+0x1814>
     90c:	e1961007 	orrs	r1, r6, r7
     910:	03a02000 	moveq	r2, #0
     914:	13a02001 	movne	r2, #1
     918:	e3a03001 	mov	r3, #1
     91c:	e3540000 	cmp	r4, #0
     920:	a59dc018 	ldrge	r12, [sp, #24]
     924:	a3ccc080 	bicge	r12, r12, #128	; 0x80
     928:	a58dc018 	strge	r12, [sp, #24]
     92c:	e3540000 	cmp	r4, #0
     930:	13822001 	orrne	r2, r2, #1
     934:	e3520000 	cmp	r2, #0
     938:	0a0002a4 	beq	13d0 <_vfprintf_r+0x101c>
     93c:	e3530001 	cmp	r3, #1
     940:	0a000397 	beq	17a4 <_vfprintf_r+0x13f0>
     944:	e3530002 	cmp	r3, #2
     948:	e59dc05c 	ldr	r12, [sp, #92]	; 0x5c
     94c:	0a000380 	beq	1754 <_vfprintf_r+0x13a0>
     950:	e3a00007 	mov	r0, #7
     954:	e1a0a1a6 	lsr	r10, r6, #3
     958:	e18aae87 	orr	r10, r10, r7, lsl #29
     95c:	e0062000 	and	r2, r6, r0
     960:	e1a031a7 	lsr	r3, r7, #3
     964:	e1a07003 	mov	r7, r3
     968:	e1a0600a 	mov	r6, r10
     96c:	e2822030 	add	r2, r2, #48	; 0x30
     970:	e20220ff 	and	r2, r2, #255	; 0xff
     974:	e196b007 	orrs	r11, r6, r7
     978:	e1a0300c 	mov	r3, r12
     97c:	e5cc2000 	strb	r2, [r12]
     980:	e24cc001 	sub	r12, r12, #1
     984:	1afffff2 	bne	954 <_vfprintf_r+0x5a0>
     988:	e59d6018 	ldr	r6, [sp, #24]
     98c:	e3160001 	tst	r6, #1
     990:	e58d304c 	str	r3, [sp, #76]	; 0x4c
     994:	1a00047f 	bne	1b98 <_vfprintf_r+0x17e4>
     998:	e59d7054 	ldr	r7, [sp, #84]	; 0x54
     99c:	e0637007 	rsb	r7, r3, r7
     9a0:	e58d7038 	str	r7, [sp, #56]	; 0x38
     9a4:	e59d7038 	ldr	r7, [sp, #56]	; 0x38
     9a8:	e3a0b000 	mov	r11, #0
     9ac:	e1570004 	cmp	r7, r4
     9b0:	b1a07004 	movlt	r7, r4
     9b4:	e58d7020 	str	r7, [sp, #32]
     9b8:	e5dd3083 	ldrb	r3, [sp, #131]	; 0x83
     9bc:	e58d4040 	str	r4, [sp, #64]	; 0x40
     9c0:	e58db060 	str	r11, [sp, #96]	; 0x60
     9c4:	e3530000 	cmp	r3, #0
     9c8:	0a000002 	beq	9d8 <_vfprintf_r+0x624>
     9cc:	e59d7020 	ldr	r7, [sp, #32]
     9d0:	e2877001 	add	r7, r7, #1
     9d4:	e58d7020 	str	r7, [sp, #32]
     9d8:	e59db018 	ldr	r11, [sp, #24]
     9dc:	e21bb002 	ands	r11, r11, #2
     9e0:	159dc020 	ldrne	r12, [sp, #32]
     9e4:	e59d3018 	ldr	r3, [sp, #24]
     9e8:	128cc002 	addne	r12, r12, #2
     9ec:	158dc020 	strne	r12, [sp, #32]
     9f0:	e2133084 	ands	r3, r3, #132	; 0x84
     9f4:	e58db048 	str	r11, [sp, #72]	; 0x48
     9f8:	e58d3050 	str	r3, [sp, #80]	; 0x50
     9fc:	1a000178 	bne	fe4 <_vfprintf_r+0xc30>
     a00:	e59d4030 	ldr	r4, [sp, #48]	; 0x30
     a04:	e59d6020 	ldr	r6, [sp, #32]
     a08:	e0667004 	rsb	r7, r6, r4
     a0c:	e3570000 	cmp	r7, #0
     a10:	da000173 	ble	fe4 <_vfprintf_r+0xc30>
     a14:	e28d40a8 	add	r4, sp, #168	; 0xa8
     a18:	e3570010 	cmp	r7, #16
     a1c:	e8940050 	ldm	r4, {r4, r6}
     a20:	e59f9d00 	ldr	r9, [pc, #3328]	; 1728 <_vfprintf_r+0x1374>
     a24:	da000023 	ble	ab8 <_vfprintf_r+0x704>
     a28:	e28da0a4 	add	r10, sp, #164	; 0xa4
     a2c:	e1a03009 	mov	r3, r9
     a30:	e58d8078 	str	r8, [sp, #120]	; 0x78
     a34:	e1a09007 	mov	r9, r7
     a38:	e1a0800a 	mov	r8, r10
     a3c:	e3a0b010 	mov	r11, #16
     a40:	e59da02c 	ldr	r10, [sp, #44]	; 0x2c
     a44:	e1a07003 	mov	r7, r3
     a48:	ea000002 	b	a58 <_vfprintf_r+0x6a4>
     a4c:	e2499010 	sub	r9, r9, #16
     a50:	e3590010 	cmp	r9, #16
     a54:	da000013 	ble	aa8 <_vfprintf_r+0x6f4>
     a58:	e2844001 	add	r4, r4, #1
     a5c:	e3540007 	cmp	r4, #7
     a60:	e2866010 	add	r6, r6, #16
     a64:	e8850880 	stm	r5, {r7, r11}
     a68:	e58d60ac 	str	r6, [sp, #172]	; 0xac
     a6c:	e58d40a8 	str	r4, [sp, #168]	; 0xa8
     a70:	d2855008 	addle	r5, r5, #8
     a74:	dafffff4 	ble	a4c <_vfprintf_r+0x698>
     a78:	e1a0000a 	mov	r0, r10
     a7c:	e59d101c 	ldr	r1, [sp, #28]
     a80:	e1a02008 	mov	r2, r8
     a84:	eb0017fc 	bl	6a7c <__sprint_r>
     a88:	e3500000 	cmp	r0, #0
     a8c:	1affff2d 	bne	748 <_vfprintf_r+0x394>
     a90:	e2499010 	sub	r9, r9, #16
     a94:	e28d40a8 	add	r4, sp, #168	; 0xa8
     a98:	e3590010 	cmp	r9, #16
     a9c:	e8940050 	ldm	r4, {r4, r6}
     aa0:	e28d5d05 	add	r5, sp, #320	; 0x140
     aa4:	caffffeb 	bgt	a58 <_vfprintf_r+0x6a4>
     aa8:	e1a03007 	mov	r3, r7
     aac:	e59d8078 	ldr	r8, [sp, #120]	; 0x78
     ab0:	e1a07009 	mov	r7, r9
     ab4:	e1a09003 	mov	r9, r3
     ab8:	e2844001 	add	r4, r4, #1
     abc:	e0866007 	add	r6, r6, r7
     ac0:	e3540007 	cmp	r4, #7
     ac4:	e5859000 	str	r9, [r5]
     ac8:	e5857004 	str	r7, [r5, #4]
     acc:	e58d60ac 	str	r6, [sp, #172]	; 0xac
     ad0:	e58d40a8 	str	r4, [sp, #168]	; 0xa8
     ad4:	d2855008 	addle	r5, r5, #8
     ad8:	da000142 	ble	fe8 <_vfprintf_r+0xc34>
     adc:	e59d002c 	ldr	r0, [sp, #44]	; 0x2c
     ae0:	e59d101c 	ldr	r1, [sp, #28]
     ae4:	e28d20a4 	add	r2, sp, #164	; 0xa4
     ae8:	eb0017e3 	bl	6a7c <__sprint_r>
     aec:	e3500000 	cmp	r0, #0
     af0:	1affff14 	bne	748 <_vfprintf_r+0x394>
     af4:	e59d60ac 	ldr	r6, [sp, #172]	; 0xac
     af8:	e28d5d05 	add	r5, sp, #320	; 0x140
     afc:	ea000139 	b	fe8 <_vfprintf_r+0xc34>
     b00:	e59d6018 	ldr	r6, [sp, #24]
     b04:	e3160008 	tst	r6, #8
     b08:	e58d3028 	str	r3, [sp, #40]	; 0x28
     b0c:	0a000493 	beq	1d60 <_vfprintf_r+0x19ac>
     b10:	e59d703c 	ldr	r7, [sp, #60]	; 0x3c
     b14:	e2871007 	add	r1, r7, #7
     b18:	e3c11007 	bic	r1, r1, #7
     b1c:	e591a000 	ldr	r10, [r1]
     b20:	e5917004 	ldr	r7, [r1, #4]
     b24:	e1a0b00a 	mov	r11, r10
     b28:	e1a0c007 	mov	r12, r7
     b2c:	e2811008 	add	r1, r1, #8
     b30:	e58db068 	str	r11, [sp, #104]	; 0x68
     b34:	e58dc06c 	str	r12, [sp, #108]	; 0x6c
     b38:	e58d103c 	str	r1, [sp, #60]	; 0x3c
     b3c:	e1a01007 	mov	r1, r7
     b40:	e1a0000a 	mov	r0, r10
     b44:	eb0016c6 	bl	6664 <__fpclassifyd>
     b48:	e3500001 	cmp	r0, #1
     b4c:	e1a01007 	mov	r1, r7
     b50:	e1a0000a 	mov	r0, r10
     b54:	1a000426 	bne	1bf4 <_vfprintf_r+0x1840>
     b58:	e3a03000 	mov	r3, #0
     b5c:	e3a02000 	mov	r2, #0
     b60:	eb002454 	bl	9cb8 <__aeabi_dcmplt>
     b64:	e3500000 	cmp	r0, #0
     b68:	13a0302d 	movne	r3, #45	; 0x2d
     b6c:	e59d7018 	ldr	r7, [sp, #24]
     b70:	e59f2bb4 	ldr	r2, [pc, #2996]	; 172c <_vfprintf_r+0x1378>
     b74:	e59f1bb4 	ldr	r1, [pc, #2996]	; 1730 <_vfprintf_r+0x137c>
     b78:	05dd3083 	ldrbeq	r3, [sp, #131]	; 0x83
     b7c:	15cd3083 	strbne	r3, [sp, #131]	; 0x83
     b80:	e3580047 	cmp	r8, #71	; 0x47
     b84:	e3a04003 	mov	r4, #3
     b88:	e3a06000 	mov	r6, #0
     b8c:	d1a01002 	movle	r1, r2
     b90:	e3c77080 	bic	r7, r7, #128	; 0x80
     b94:	e58d4020 	str	r4, [sp, #32]
     b98:	e58d6040 	str	r6, [sp, #64]	; 0x40
     b9c:	e58d104c 	str	r1, [sp, #76]	; 0x4c
     ba0:	e58d7018 	str	r7, [sp, #24]
     ba4:	e58d4038 	str	r4, [sp, #56]	; 0x38
     ba8:	e58d6060 	str	r6, [sp, #96]	; 0x60
     bac:	eaffff84 	b	9c4 <_vfprintf_r+0x610>
     bb0:	e59d6018 	ldr	r6, [sp, #24]
     bb4:	e3866008 	orr	r6, r6, #8
     bb8:	e58d6018 	str	r6, [sp, #24]
     bbc:	e5d38000 	ldrb	r8, [r3]
     bc0:	eafffe5e 	b	540 <_vfprintf_r+0x18c>
     bc4:	e59d6018 	ldr	r6, [sp, #24]
     bc8:	e3866010 	orr	r6, r6, #16
     bcc:	e58d6018 	str	r6, [sp, #24]
     bd0:	e59d7018 	ldr	r7, [sp, #24]
     bd4:	e58d3028 	str	r3, [sp, #40]	; 0x28
     bd8:	e2173020 	ands	r3, r7, #32
     bdc:	0a000074 	beq	db4 <_vfprintf_r+0xa00>
     be0:	e59db03c 	ldr	r11, [sp, #60]	; 0x3c
     be4:	e28b3007 	add	r3, r11, #7
     be8:	e3c33007 	bic	r3, r3, #7
     bec:	e89300c0 	ldm	r3, {r6, r7}
     bf0:	e2833008 	add	r3, r3, #8
     bf4:	e196c007 	orrs	r12, r6, r7
     bf8:	e58d303c 	str	r3, [sp, #60]	; 0x3c
     bfc:	03a02000 	moveq	r2, #0
     c00:	13a02001 	movne	r2, #1
     c04:	e3a03000 	mov	r3, #0
     c08:	e3a01000 	mov	r1, #0
     c0c:	e5cd1083 	strb	r1, [sp, #131]	; 0x83
     c10:	eaffff41 	b	91c <_vfprintf_r+0x568>
     c14:	e59d6018 	ldr	r6, [sp, #24]
     c18:	e3866010 	orr	r6, r6, #16
     c1c:	e58d6018 	str	r6, [sp, #24]
     c20:	e59d7018 	ldr	r7, [sp, #24]
     c24:	e3170020 	tst	r7, #32
     c28:	e58d3028 	str	r3, [sp, #40]	; 0x28
     c2c:	0a000095 	beq	e88 <_vfprintf_r+0xad4>
     c30:	e59db03c 	ldr	r11, [sp, #60]	; 0x3c
     c34:	e28b3007 	add	r3, r11, #7
     c38:	e3c33007 	bic	r3, r3, #7
     c3c:	e89300c0 	ldm	r3, {r6, r7}
     c40:	e2833008 	add	r3, r3, #8
     c44:	e196c007 	orrs	r12, r6, r7
     c48:	e58d303c 	str	r3, [sp, #60]	; 0x3c
     c4c:	03a02000 	moveq	r2, #0
     c50:	13a02001 	movne	r2, #1
     c54:	e3a03001 	mov	r3, #1
     c58:	eaffffea 	b	c08 <_vfprintf_r+0x854>
     c5c:	e59db018 	ldr	r11, [sp, #24]
     c60:	e59f7acc 	ldr	r7, [pc, #2764]	; 1734 <_vfprintf_r+0x1380>
     c64:	e31b0020 	tst	r11, #32
     c68:	e58d3028 	str	r3, [sp, #40]	; 0x28
     c6c:	e58d7074 	str	r7, [sp, #116]	; 0x74
     c70:	0a000098 	beq	ed8 <_vfprintf_r+0xb24>
     c74:	e59dc03c 	ldr	r12, [sp, #60]	; 0x3c
     c78:	e28c3007 	add	r3, r12, #7
     c7c:	e3c33007 	bic	r3, r3, #7
     c80:	e2836008 	add	r6, r3, #8
     c84:	e58d603c 	str	r6, [sp, #60]	; 0x3c
     c88:	e89300c0 	ldm	r3, {r6, r7}
     c8c:	e59db018 	ldr	r11, [sp, #24]
     c90:	e31b0001 	tst	r11, #1
     c94:	1a0002f2 	bne	1864 <_vfprintf_r+0x14b0>
     c98:	e196c007 	orrs	r12, r6, r7
     c9c:	03a02000 	moveq	r2, #0
     ca0:	13a02001 	movne	r2, #1
     ca4:	e3a03002 	mov	r3, #2
     ca8:	eaffffd6 	b	c08 <_vfprintf_r+0x854>
     cac:	e59d6018 	ldr	r6, [sp, #24]
     cb0:	e3866020 	orr	r6, r6, #32
     cb4:	e58d6018 	str	r6, [sp, #24]
     cb8:	e5d38000 	ldrb	r8, [r3]
     cbc:	eafffe1f 	b	540 <_vfprintf_r+0x18c>
     cc0:	e3a06000 	mov	r6, #0
     cc4:	e5cd6083 	strb	r6, [sp, #131]	; 0x83
     cc8:	e59d703c 	ldr	r7, [sp, #60]	; 0x3c
     ccc:	e5977000 	ldr	r7, [r7]
     cd0:	e59db03c 	ldr	r11, [sp, #60]	; 0x3c
     cd4:	e1570006 	cmp	r7, r6
     cd8:	e58d704c 	str	r7, [sp, #76]	; 0x4c
     cdc:	e58d3028 	str	r3, [sp, #40]	; 0x28
     ce0:	e28b7004 	add	r7, r11, #4
     ce4:	0a000536 	beq	21c4 <_vfprintf_r+0x1e10>
     ce8:	e3540000 	cmp	r4, #0
     cec:	e59d004c 	ldr	r0, [sp, #76]	; 0x4c
     cf0:	ba000513 	blt	2144 <_vfprintf_r+0x1d90>
     cf4:	e1a01006 	mov	r1, r6
     cf8:	e1a02004 	mov	r2, r4
     cfc:	eb0011f7 	bl	54e0 <memchr>
     d00:	e3500000 	cmp	r0, #0
     d04:	0a000584 	beq	231c <_vfprintf_r+0x1f68>
     d08:	e59dc04c 	ldr	r12, [sp, #76]	; 0x4c
     d0c:	e06c0000 	rsb	r0, r12, r0
     d10:	e1500004 	cmp	r0, r4
     d14:	e58d0038 	str	r0, [sp, #56]	; 0x38
     d18:	e58d6040 	str	r6, [sp, #64]	; 0x40
     d1c:	da00049f 	ble	1fa0 <_vfprintf_r+0x1bec>
     d20:	e58d703c 	str	r7, [sp, #60]	; 0x3c
     d24:	e59d7040 	ldr	r7, [sp, #64]	; 0x40
     d28:	e1c46fc4 	bic	r6, r4, r4, asr #31
     d2c:	e58d6020 	str	r6, [sp, #32]
     d30:	e5dd3083 	ldrb	r3, [sp, #131]	; 0x83
     d34:	e58d4038 	str	r4, [sp, #56]	; 0x38
     d38:	e58d7060 	str	r7, [sp, #96]	; 0x60
     d3c:	eaffff20 	b	9c4 <_vfprintf_r+0x610>
     d40:	e5d38000 	ldrb	r8, [r3]
     d44:	e358006c 	cmp	r8, #108	; 0x6c
     d48:	059db018 	ldreq	r11, [sp, #24]
     d4c:	159dc018 	ldrne	r12, [sp, #24]
     d50:	e1a00003 	mov	r0, r3
     d54:	038bb020 	orreq	r11, r11, #32
     d58:	138cc010 	orrne	r12, r12, #16
     d5c:	02833001 	addeq	r3, r3, #1
     d60:	058db018 	streq	r11, [sp, #24]
     d64:	05d08001 	ldrbeq	r8, [r0, #1]
     d68:	158dc018 	strne	r12, [sp, #24]
     d6c:	eafffdf3 	b	540 <_vfprintf_r+0x18c>
     d70:	e59d4018 	ldr	r4, [sp, #24]
     d74:	e3140020 	tst	r4, #32
     d78:	e58d3028 	str	r3, [sp, #40]	; 0x28
     d7c:	0a000403 	beq	1d90 <_vfprintf_r+0x19dc>
     d80:	e59d603c 	ldr	r6, [sp, #60]	; 0x3c
     d84:	e59d2034 	ldr	r2, [sp, #52]	; 0x34
     d88:	e5963000 	ldr	r3, [r6]
     d8c:	e1a01fc2 	asr	r1, r2, #31
     d90:	e2866004 	add	r6, r6, #4
     d94:	e5832000 	str	r2, [r3]
     d98:	e5831004 	str	r1, [r3, #4]
     d9c:	e58d603c 	str	r6, [sp, #60]	; 0x3c
     da0:	eafffdbb 	b	494 <_vfprintf_r+0xe0>
     da4:	e59d7018 	ldr	r7, [sp, #24]
     da8:	e58d3028 	str	r3, [sp, #40]	; 0x28
     dac:	e2173020 	ands	r3, r7, #32
     db0:	1affff8a 	bne	be0 <_vfprintf_r+0x82c>
     db4:	e59d6018 	ldr	r6, [sp, #24]
     db8:	e2161010 	ands	r1, r6, #16
     dbc:	0a00041e 	beq	1e3c <_vfprintf_r+0x1a88>
     dc0:	e59d703c 	ldr	r7, [sp, #60]	; 0x3c
     dc4:	e59db03c 	ldr	r11, [sp, #60]	; 0x3c
     dc8:	e5972000 	ldr	r2, [r7]
     dcc:	e3a07000 	mov	r7, #0
     dd0:	e1a06002 	mov	r6, r2
     dd4:	e28bb004 	add	r11, r11, #4
     dd8:	e0522007 	subs	r2, r2, r7
     ddc:	13a02001 	movne	r2, #1
     de0:	e58db03c 	str	r11, [sp, #60]	; 0x3c
     de4:	eaffff87 	b	c08 <_vfprintf_r+0x854>
     de8:	e3580000 	cmp	r8, #0
     dec:	e58d3028 	str	r3, [sp, #40]	; 0x28
     df0:	0a000461 	beq	1f7c <_vfprintf_r+0x1bc8>
     df4:	e3a0c001 	mov	r12, #1
     df8:	e3a03000 	mov	r3, #0
     dfc:	e28d40b0 	add	r4, sp, #176	; 0xb0
     e00:	e58dc020 	str	r12, [sp, #32]
     e04:	e5cd80b0 	strb	r8, [sp, #176]	; 0xb0
     e08:	e5cd3083 	strb	r3, [sp, #131]	; 0x83
     e0c:	e58dc038 	str	r12, [sp, #56]	; 0x38
     e10:	e58d404c 	str	r4, [sp, #76]	; 0x4c
     e14:	e3a04000 	mov	r4, #0
     e18:	e58d4040 	str	r4, [sp, #64]	; 0x40
     e1c:	e58d4060 	str	r4, [sp, #96]	; 0x60
     e20:	eafffeec 	b	9d8 <_vfprintf_r+0x624>
     e24:	e5dd0083 	ldrb	r0, [sp, #131]	; 0x83
     e28:	e3500000 	cmp	r0, #0
     e2c:	1a00036e 	bne	1bec <_vfprintf_r+0x1838>
     e30:	e5cd1083 	strb	r1, [sp, #131]	; 0x83
     e34:	e5d38000 	ldrb	r8, [r3]
     e38:	eafffdc0 	b	540 <_vfprintf_r+0x18c>
     e3c:	e59d7018 	ldr	r7, [sp, #24]
     e40:	e3877001 	orr	r7, r7, #1
     e44:	e58d7018 	str	r7, [sp, #24]
     e48:	e5d38000 	ldrb	r8, [r3]
     e4c:	eafffdbb 	b	540 <_vfprintf_r+0x18c>
     e50:	e59db03c 	ldr	r11, [sp, #60]	; 0x3c
     e54:	e59bb000 	ldr	r11, [r11]
     e58:	e59dc03c 	ldr	r12, [sp, #60]	; 0x3c
     e5c:	e35b0000 	cmp	r11, #0
     e60:	e58db030 	str	r11, [sp, #48]	; 0x30
     e64:	e28c0004 	add	r0, r12, #4
     e68:	bafffe12 	blt	6b8 <_vfprintf_r+0x304>
     e6c:	e5d38000 	ldrb	r8, [r3]
     e70:	e58d003c 	str	r0, [sp, #60]	; 0x3c
     e74:	eafffdb1 	b	540 <_vfprintf_r+0x18c>
     e78:	e59d7018 	ldr	r7, [sp, #24]
     e7c:	e3170020 	tst	r7, #32
     e80:	e58d3028 	str	r3, [sp, #40]	; 0x28
     e84:	1affff69 	bne	c30 <_vfprintf_r+0x87c>
     e88:	e59d6018 	ldr	r6, [sp, #24]
     e8c:	e3160010 	tst	r6, #16
     e90:	0a0003e3 	beq	1e24 <_vfprintf_r+0x1a70>
     e94:	e59d703c 	ldr	r7, [sp, #60]	; 0x3c
     e98:	e5972000 	ldr	r2, [r7]
     e9c:	e59db03c 	ldr	r11, [sp, #60]	; 0x3c
     ea0:	e3a07000 	mov	r7, #0
     ea4:	e1a06002 	mov	r6, r2
     ea8:	e28bb004 	add	r11, r11, #4
     eac:	e0522007 	subs	r2, r2, r7
     eb0:	13a02001 	movne	r2, #1
     eb4:	e58db03c 	str	r11, [sp, #60]	; 0x3c
     eb8:	e3a03001 	mov	r3, #1
     ebc:	eaffff51 	b	c08 <_vfprintf_r+0x854>
     ec0:	e59db018 	ldr	r11, [sp, #24]
     ec4:	e59f686c 	ldr	r6, [pc, #2156]	; 1738 <_vfprintf_r+0x1384>
     ec8:	e31b0020 	tst	r11, #32
     ecc:	e58d3028 	str	r3, [sp, #40]	; 0x28
     ed0:	e58d6074 	str	r6, [sp, #116]	; 0x74
     ed4:	1affff66 	bne	c74 <_vfprintf_r+0x8c0>
     ed8:	e59d7018 	ldr	r7, [sp, #24]
     edc:	e3170010 	tst	r7, #16
     ee0:	0a0003c4 	beq	1df8 <_vfprintf_r+0x1a44>
     ee4:	e59db03c 	ldr	r11, [sp, #60]	; 0x3c
     ee8:	e59b3000 	ldr	r3, [r11]
     eec:	e28bb004 	add	r11, r11, #4
     ef0:	e1a06003 	mov	r6, r3
     ef4:	e3a07000 	mov	r7, #0
     ef8:	e58db03c 	str	r11, [sp, #60]	; 0x3c
     efc:	eaffff62 	b	c8c <_vfprintf_r+0x8d8>
     f00:	e59d7018 	ldr	r7, [sp, #24]
     f04:	e3170020 	tst	r7, #32
     f08:	e58d3028 	str	r3, [sp, #40]	; 0x28
     f0c:	1afffe73 	bne	8e0 <_vfprintf_r+0x52c>
     f10:	e59dc018 	ldr	r12, [sp, #24]
     f14:	e31c0010 	tst	r12, #16
     f18:	0a0003b0 	beq	1de0 <_vfprintf_r+0x1a2c>
     f1c:	e59d603c 	ldr	r6, [sp, #60]	; 0x3c
     f20:	e5963000 	ldr	r3, [r6]
     f24:	e59db03c 	ldr	r11, [sp, #60]	; 0x3c
     f28:	e1a07fc3 	asr	r7, r3, #31
     f2c:	e28bb004 	add	r11, r11, #4
     f30:	e1a06003 	mov	r6, r3
     f34:	e1a02003 	mov	r2, r3
     f38:	e58db03c 	str	r11, [sp, #60]	; 0x3c
     f3c:	e1a03007 	mov	r3, r7
     f40:	eafffe6e 	b	900 <_vfprintf_r+0x54c>
     f44:	e59d7018 	ldr	r7, [sp, #24]
     f48:	e3877040 	orr	r7, r7, #64	; 0x40
     f4c:	e58d7018 	str	r7, [sp, #24]
     f50:	e5d38000 	ldrb	r8, [r3]
     f54:	eafffd79 	b	540 <_vfprintf_r+0x18c>
     f58:	e58d3028 	str	r3, [sp, #40]	; 0x28
     f5c:	e59d303c 	ldr	r3, [sp, #60]	; 0x3c
     f60:	e59db03c 	ldr	r11, [sp, #60]	; 0x3c
     f64:	e5933000 	ldr	r3, [r3]
     f68:	e3a07001 	mov	r7, #1
     f6c:	e28bb004 	add	r11, r11, #4
     f70:	e5cd30b0 	strb	r3, [sp, #176]	; 0xb0
     f74:	e28dc0b0 	add	r12, sp, #176	; 0xb0
     f78:	e3a03000 	mov	r3, #0
     f7c:	e58d7020 	str	r7, [sp, #32]
     f80:	e58db03c 	str	r11, [sp, #60]	; 0x3c
     f84:	e5cd3083 	strb	r3, [sp, #131]	; 0x83
     f88:	e58d7038 	str	r7, [sp, #56]	; 0x38
     f8c:	e58dc04c 	str	r12, [sp, #76]	; 0x4c
     f90:	eaffff9f 	b	e14 <_vfprintf_r+0xa60>
     f94:	e59dc018 	ldr	r12, [sp, #24]
     f98:	e58d3028 	str	r3, [sp, #40]	; 0x28
     f9c:	e59d303c 	ldr	r3, [sp, #60]	; 0x3c
     fa0:	e38cc002 	orr	r12, r12, #2
     fa4:	e5932000 	ldr	r2, [r3]
     fa8:	e58dc018 	str	r12, [sp, #24]
     fac:	e3a07000 	mov	r7, #0
     fb0:	e59fc780 	ldr	r12, [pc, #1920]	; 1738 <_vfprintf_r+0x1384>
     fb4:	e283b004 	add	r11, r3, #4
     fb8:	e3a08078 	mov	r8, #120	; 0x78
     fbc:	e3a03030 	mov	r3, #48	; 0x30
     fc0:	e1a06002 	mov	r6, r2
     fc4:	e0522007 	subs	r2, r2, r7
     fc8:	e5cd3084 	strb	r3, [sp, #132]	; 0x84
     fcc:	e58db03c 	str	r11, [sp, #60]	; 0x3c
     fd0:	e5cd8085 	strb	r8, [sp, #133]	; 0x85
     fd4:	13a02001 	movne	r2, #1
     fd8:	e58dc074 	str	r12, [sp, #116]	; 0x74
     fdc:	e3a03002 	mov	r3, #2
     fe0:	eaffff08 	b	c08 <_vfprintf_r+0x854>
     fe4:	e59d60ac 	ldr	r6, [sp, #172]	; 0xac
     fe8:	e5dd3083 	ldrb	r3, [sp, #131]	; 0x83
     fec:	e3530000 	cmp	r3, #0
     ff0:	0a00000c 	beq	1028 <_vfprintf_r+0xc74>
     ff4:	e59d40a8 	ldr	r4, [sp, #168]	; 0xa8
     ff8:	e28d3083 	add	r3, sp, #131	; 0x83
     ffc:	e2844001 	add	r4, r4, #1
    1000:	e5853000 	str	r3, [r5]
    1004:	e2866001 	add	r6, r6, #1
    1008:	e3540007 	cmp	r4, #7
    100c:	e3a03001 	mov	r3, #1
    1010:	e5853004 	str	r3, [r5, #4]
    1014:	e28d7090 	add	r7, sp, #144	; 0x90
    1018:	e58d60ac 	str	r6, [sp, #172]	; 0xac
    101c:	e58d40a8 	str	r4, [sp, #168]	; 0xa8
    1020:	d2855008 	addle	r5, r5, #8
    1024:	ca000179 	bgt	1610 <_vfprintf_r+0x125c>
    1028:	e59dc048 	ldr	r12, [sp, #72]	; 0x48
    102c:	e35c0000 	cmp	r12, #0
    1030:	0a00000b 	beq	1064 <_vfprintf_r+0xcb0>
    1034:	e59d40a8 	ldr	r4, [sp, #168]	; 0xa8
    1038:	e28d3084 	add	r3, sp, #132	; 0x84
    103c:	e2844001 	add	r4, r4, #1
    1040:	e5853000 	str	r3, [r5]
    1044:	e2866002 	add	r6, r6, #2
    1048:	e3540007 	cmp	r4, #7
    104c:	e3a03002 	mov	r3, #2
    1050:	e5853004 	str	r3, [r5, #4]
    1054:	e58d60ac 	str	r6, [sp, #172]	; 0xac
    1058:	e58d40a8 	str	r4, [sp, #168]	; 0xa8
    105c:	d2855008 	addle	r5, r5, #8
    1060:	ca000161 	bgt	15ec <_vfprintf_r+0x1238>
    1064:	e59d4050 	ldr	r4, [sp, #80]	; 0x50
    1068:	e3540080 	cmp	r4, #128	; 0x80
    106c:	0a0000e3 	beq	1400 <_vfprintf_r+0x104c>
    1070:	e59d4040 	ldr	r4, [sp, #64]	; 0x40
    1074:	e59d7038 	ldr	r7, [sp, #56]	; 0x38
    1078:	e0679004 	rsb	r9, r7, r4
    107c:	e3590000 	cmp	r9, #0
    1080:	da000031 	ble	114c <_vfprintf_r+0xd98>
    1084:	e3590010 	cmp	r9, #16
    1088:	e59d40a8 	ldr	r4, [sp, #168]	; 0xa8
    108c:	e59f76ac 	ldr	r7, [pc, #1708]	; 1740 <_vfprintf_r+0x138c>
    1090:	da00001d 	ble	110c <_vfprintf_r+0xd58>
    1094:	e28da0a4 	add	r10, sp, #164	; 0xa4
    1098:	e58d8040 	str	r8, [sp, #64]	; 0x40
    109c:	e3a0b010 	mov	r11, #16
    10a0:	e1a0800a 	mov	r8, r10
    10a4:	e59da02c 	ldr	r10, [sp, #44]	; 0x2c
    10a8:	ea000002 	b	10b8 <_vfprintf_r+0xd04>
    10ac:	e2499010 	sub	r9, r9, #16
    10b0:	e3590010 	cmp	r9, #16
    10b4:	da000013 	ble	1108 <_vfprintf_r+0xd54>
    10b8:	e2844001 	add	r4, r4, #1
    10bc:	e3540007 	cmp	r4, #7
    10c0:	e2866010 	add	r6, r6, #16
    10c4:	e8850880 	stm	r5, {r7, r11}
    10c8:	e58d60ac 	str	r6, [sp, #172]	; 0xac
    10cc:	e58d40a8 	str	r4, [sp, #168]	; 0xa8
    10d0:	d2855008 	addle	r5, r5, #8
    10d4:	dafffff4 	ble	10ac <_vfprintf_r+0xcf8>
    10d8:	e1a0000a 	mov	r0, r10
    10dc:	e59d101c 	ldr	r1, [sp, #28]
    10e0:	e1a02008 	mov	r2, r8
    10e4:	eb001664 	bl	6a7c <__sprint_r>
    10e8:	e3500000 	cmp	r0, #0
    10ec:	1afffd95 	bne	748 <_vfprintf_r+0x394>
    10f0:	e2499010 	sub	r9, r9, #16
    10f4:	e28d40a8 	add	r4, sp, #168	; 0xa8
    10f8:	e3590010 	cmp	r9, #16
    10fc:	e8940050 	ldm	r4, {r4, r6}
    1100:	e28d5d05 	add	r5, sp, #320	; 0x140
    1104:	caffffeb 	bgt	10b8 <_vfprintf_r+0xd04>
    1108:	e59d8040 	ldr	r8, [sp, #64]	; 0x40
    110c:	e2844001 	add	r4, r4, #1
    1110:	e0866009 	add	r6, r6, r9
    1114:	e3540007 	cmp	r4, #7
    1118:	e8850280 	stm	r5, {r7, r9}
    111c:	e58d60ac 	str	r6, [sp, #172]	; 0xac
    1120:	e58d40a8 	str	r4, [sp, #168]	; 0xa8
    1124:	d2855008 	addle	r5, r5, #8
    1128:	da000007 	ble	114c <_vfprintf_r+0xd98>
    112c:	e59d002c 	ldr	r0, [sp, #44]	; 0x2c
    1130:	e59d101c 	ldr	r1, [sp, #28]
    1134:	e28d20a4 	add	r2, sp, #164	; 0xa4
    1138:	eb00164f 	bl	6a7c <__sprint_r>
    113c:	e3500000 	cmp	r0, #0
    1140:	1afffd80 	bne	748 <_vfprintf_r+0x394>
    1144:	e59d60ac 	ldr	r6, [sp, #172]	; 0xac
    1148:	e28d5d05 	add	r5, sp, #320	; 0x140
    114c:	e59d4018 	ldr	r4, [sp, #24]
    1150:	e3140c01 	tst	r4, #256	; 0x100
    1154:	1a000052 	bne	12a4 <_vfprintf_r+0xef0>
    1158:	e59d40a8 	ldr	r4, [sp, #168]	; 0xa8
    115c:	e59d7038 	ldr	r7, [sp, #56]	; 0x38
    1160:	e2844001 	add	r4, r4, #1
    1164:	e59dc04c 	ldr	r12, [sp, #76]	; 0x4c
    1168:	e0866007 	add	r6, r6, r7
    116c:	e3540007 	cmp	r4, #7
    1170:	e585c000 	str	r12, [r5]
    1174:	e5857004 	str	r7, [r5, #4]
    1178:	e58d60ac 	str	r6, [sp, #172]	; 0xac
    117c:	e58d40a8 	str	r4, [sp, #168]	; 0xa8
    1180:	ca00010c 	bgt	15b8 <_vfprintf_r+0x1204>
    1184:	e2855008 	add	r5, r5, #8
    1188:	e59d4018 	ldr	r4, [sp, #24]
    118c:	e3140004 	tst	r4, #4
    1190:	0a000036 	beq	1270 <_vfprintf_r+0xebc>
    1194:	e59d7030 	ldr	r7, [sp, #48]	; 0x30
    1198:	e59db020 	ldr	r11, [sp, #32]
    119c:	e06b8007 	rsb	r8, r11, r7
    11a0:	e3580000 	cmp	r8, #0
    11a4:	da000031 	ble	1270 <_vfprintf_r+0xebc>
    11a8:	e3580010 	cmp	r8, #16
    11ac:	e59d40a8 	ldr	r4, [sp, #168]	; 0xa8
    11b0:	e59f9570 	ldr	r9, [pc, #1392]	; 1728 <_vfprintf_r+0x1374>
    11b4:	da00001e 	ble	1234 <_vfprintf_r+0xe80>
    11b8:	e28d70a4 	add	r7, sp, #164	; 0xa4
    11bc:	e1a03007 	mov	r3, r7
    11c0:	e3a0a010 	mov	r10, #16
    11c4:	e1a07009 	mov	r7, r9
    11c8:	e59db02c 	ldr	r11, [sp, #44]	; 0x2c
    11cc:	e1a09003 	mov	r9, r3
    11d0:	ea000002 	b	11e0 <_vfprintf_r+0xe2c>
    11d4:	e2488010 	sub	r8, r8, #16
    11d8:	e3580010 	cmp	r8, #16
    11dc:	da000013 	ble	1230 <_vfprintf_r+0xe7c>
    11e0:	e2844001 	add	r4, r4, #1
    11e4:	e3540007 	cmp	r4, #7
    11e8:	e2866010 	add	r6, r6, #16
    11ec:	e8850480 	stm	r5, {r7, r10}
    11f0:	e58d60ac 	str	r6, [sp, #172]	; 0xac
    11f4:	e58d40a8 	str	r4, [sp, #168]	; 0xa8
    11f8:	d2855008 	addle	r5, r5, #8
    11fc:	dafffff4 	ble	11d4 <_vfprintf_r+0xe20>
    1200:	e1a0000b 	mov	r0, r11
    1204:	e59d101c 	ldr	r1, [sp, #28]
    1208:	e1a02009 	mov	r2, r9
    120c:	eb00161a 	bl	6a7c <__sprint_r>
    1210:	e3500000 	cmp	r0, #0
    1214:	1afffd4b 	bne	748 <_vfprintf_r+0x394>
    1218:	e2488010 	sub	r8, r8, #16
    121c:	e28d40a8 	add	r4, sp, #168	; 0xa8
    1220:	e3580010 	cmp	r8, #16
    1224:	e8940050 	ldm	r4, {r4, r6}
    1228:	e28d5d05 	add	r5, sp, #320	; 0x140
    122c:	caffffeb 	bgt	11e0 <_vfprintf_r+0xe2c>
    1230:	e1a09007 	mov	r9, r7
    1234:	e2844001 	add	r4, r4, #1
    1238:	e0886006 	add	r6, r8, r6
    123c:	e3540007 	cmp	r4, #7
    1240:	e5859000 	str	r9, [r5]
    1244:	e5858004 	str	r8, [r5, #4]
    1248:	e58d60ac 	str	r6, [sp, #172]	; 0xac
    124c:	e58d40a8 	str	r4, [sp, #168]	; 0xa8
    1250:	da000006 	ble	1270 <_vfprintf_r+0xebc>
    1254:	e59d002c 	ldr	r0, [sp, #44]	; 0x2c
    1258:	e59d101c 	ldr	r1, [sp, #28]
    125c:	e28d20a4 	add	r2, sp, #164	; 0xa4
    1260:	eb001605 	bl	6a7c <__sprint_r>
    1264:	e3500000 	cmp	r0, #0
    1268:	1afffd36 	bne	748 <_vfprintf_r+0x394>
    126c:	e59d60ac 	ldr	r6, [sp, #172]	; 0xac
    1270:	e59d4034 	ldr	r4, [sp, #52]	; 0x34
    1274:	e59d7020 	ldr	r7, [sp, #32]
    1278:	e59db030 	ldr	r11, [sp, #48]	; 0x30
    127c:	e157000b 	cmp	r7, r11
    1280:	a0844007 	addge	r4, r4, r7
    1284:	b084400b 	addlt	r4, r4, r11
    1288:	e3560000 	cmp	r6, #0
    128c:	e58d4034 	str	r4, [sp, #52]	; 0x34
    1290:	1afffd26 	bne	730 <_vfprintf_r+0x37c>
    1294:	e3a03000 	mov	r3, #0
    1298:	e58d30a8 	str	r3, [sp, #168]	; 0xa8
    129c:	e28d5d05 	add	r5, sp, #320	; 0x140
    12a0:	eafffc7b 	b	494 <_vfprintf_r+0xe0>
    12a4:	e3580065 	cmp	r8, #101	; 0x65
    12a8:	da00008c 	ble	14e0 <_vfprintf_r+0x112c>
    12ac:	e28d1068 	add	r1, sp, #104	; 0x68
    12b0:	e8910003 	ldm	r1, {r0, r1}
    12b4:	e3a02000 	mov	r2, #0
    12b8:	e3a03000 	mov	r3, #0
    12bc:	eb002277 	bl	9ca0 <__aeabi_dcmpeq>
    12c0:	e3500000 	cmp	r0, #0
    12c4:	0a0000db 	beq	1638 <_vfprintf_r+0x1284>
    12c8:	e59d40a8 	ldr	r4, [sp, #168]	; 0xa8
    12cc:	e59f3468 	ldr	r3, [pc, #1128]	; 173c <_vfprintf_r+0x1388>
    12d0:	e2844001 	add	r4, r4, #1
    12d4:	e5853000 	str	r3, [r5]
    12d8:	e2866001 	add	r6, r6, #1
    12dc:	e3540007 	cmp	r4, #7
    12e0:	e3a03001 	mov	r3, #1
    12e4:	e5853004 	str	r3, [r5, #4]
    12e8:	e58d60ac 	str	r6, [sp, #172]	; 0xac
    12ec:	e58d40a8 	str	r4, [sp, #168]	; 0xa8
    12f0:	d2855008 	addle	r5, r5, #8
    12f4:	ca0002de 	bgt	1e74 <_vfprintf_r+0x1ac0>
    12f8:	e59d3088 	ldr	r3, [sp, #136]	; 0x88
    12fc:	e59d7044 	ldr	r7, [sp, #68]	; 0x44
    1300:	e1530007 	cmp	r3, r7
    1304:	ba000002 	blt	1314 <_vfprintf_r+0xf60>
    1308:	e59db018 	ldr	r11, [sp, #24]
    130c:	e31b0001 	tst	r11, #1
    1310:	0affff9c 	beq	1188 <_vfprintf_r+0xdd4>
    1314:	e59d40a8 	ldr	r4, [sp, #168]	; 0xa8
    1318:	e59dc064 	ldr	r12, [sp, #100]	; 0x64
    131c:	e2844001 	add	r4, r4, #1
    1320:	e59d7058 	ldr	r7, [sp, #88]	; 0x58
    1324:	e086600c 	add	r6, r6, r12
    1328:	e3540007 	cmp	r4, #7
    132c:	e8851080 	stm	r5, {r7, r12}
    1330:	e58d60ac 	str	r6, [sp, #172]	; 0xac
    1334:	e58d40a8 	str	r4, [sp, #168]	; 0xa8
    1338:	d2855008 	addle	r5, r5, #8
    133c:	ca000362 	bgt	20cc <_vfprintf_r+0x1d18>
    1340:	e59dc044 	ldr	r12, [sp, #68]	; 0x44
    1344:	e24ca001 	sub	r10, r12, #1
    1348:	e35a0000 	cmp	r10, #0
    134c:	daffff8d 	ble	1188 <_vfprintf_r+0xdd4>
    1350:	e35a0010 	cmp	r10, #16
    1354:	e59d40a8 	ldr	r4, [sp, #168]	; 0xa8
    1358:	e59f73e0 	ldr	r7, [pc, #992]	; 1740 <_vfprintf_r+0x138c>
    135c:	da00014c 	ble	1894 <_vfprintf_r+0x14e0>
    1360:	e28d80a4 	add	r8, sp, #164	; 0xa4
    1364:	e1a03008 	mov	r3, r8
    1368:	e3a09010 	mov	r9, #16
    136c:	e1a08007 	mov	r8, r7
    1370:	e59db02c 	ldr	r11, [sp, #44]	; 0x2c
    1374:	e1a07003 	mov	r7, r3
    1378:	ea000002 	b	1388 <_vfprintf_r+0xfd4>
    137c:	e24aa010 	sub	r10, r10, #16
    1380:	e35a0010 	cmp	r10, #16
    1384:	da000141 	ble	1890 <_vfprintf_r+0x14dc>
    1388:	e2844001 	add	r4, r4, #1
    138c:	e3540007 	cmp	r4, #7
    1390:	e2866010 	add	r6, r6, #16
    1394:	e8850300 	stm	r5, {r8, r9}
    1398:	e58d60ac 	str	r6, [sp, #172]	; 0xac
    139c:	e58d40a8 	str	r4, [sp, #168]	; 0xa8
    13a0:	d2855008 	addle	r5, r5, #8
    13a4:	dafffff4 	ble	137c <_vfprintf_r+0xfc8>
    13a8:	e1a0000b 	mov	r0, r11
    13ac:	e59d101c 	ldr	r1, [sp, #28]
    13b0:	e1a02007 	mov	r2, r7
    13b4:	eb0015b0 	bl	6a7c <__sprint_r>
    13b8:	e3500000 	cmp	r0, #0
    13bc:	1afffce1 	bne	748 <_vfprintf_r+0x394>
    13c0:	e28d40a8 	add	r4, sp, #168	; 0xa8
    13c4:	e8940050 	ldm	r4, {r4, r6}
    13c8:	e28d5d05 	add	r5, sp, #320	; 0x140
    13cc:	eaffffea 	b	137c <_vfprintf_r+0xfc8>
    13d0:	e3530000 	cmp	r3, #0
    13d4:	1a000080 	bne	15dc <_vfprintf_r+0x1228>
    13d8:	e59d6018 	ldr	r6, [sp, #24]
    13dc:	e3160001 	tst	r6, #1
    13e0:	0a0000f9 	beq	17cc <_vfprintf_r+0x1418>
    13e4:	e59d707c 	ldr	r7, [sp, #124]	; 0x7c
    13e8:	e59db05c 	ldr	r11, [sp, #92]	; 0x5c
    13ec:	e3a03030 	mov	r3, #48	; 0x30
    13f0:	e5cd30d7 	strb	r3, [sp, #215]	; 0xd7
    13f4:	e58d7038 	str	r7, [sp, #56]	; 0x38
    13f8:	e58db04c 	str	r11, [sp, #76]	; 0x4c
    13fc:	eafffd68 	b	9a4 <_vfprintf_r+0x5f0>
    1400:	e59d7030 	ldr	r7, [sp, #48]	; 0x30
    1404:	e59db020 	ldr	r11, [sp, #32]
    1408:	e06b9007 	rsb	r9, r11, r7
    140c:	e3590000 	cmp	r9, #0
    1410:	daffff16 	ble	1070 <_vfprintf_r+0xcbc>
    1414:	e3590010 	cmp	r9, #16
    1418:	e59d40a8 	ldr	r4, [sp, #168]	; 0xa8
    141c:	e59f731c 	ldr	r7, [pc, #796]	; 1740 <_vfprintf_r+0x138c>
    1420:	da00001d 	ble	149c <_vfprintf_r+0x10e8>
    1424:	e28da0a4 	add	r10, sp, #164	; 0xa4
    1428:	e58d8048 	str	r8, [sp, #72]	; 0x48
    142c:	e3a0b010 	mov	r11, #16
    1430:	e1a0800a 	mov	r8, r10
    1434:	e59da02c 	ldr	r10, [sp, #44]	; 0x2c
    1438:	ea000002 	b	1448 <_vfprintf_r+0x1094>
    143c:	e2499010 	sub	r9, r9, #16
    1440:	e3590010 	cmp	r9, #16
    1444:	da000013 	ble	1498 <_vfprintf_r+0x10e4>
    1448:	e2844001 	add	r4, r4, #1
    144c:	e3540007 	cmp	r4, #7
    1450:	e2866010 	add	r6, r6, #16
    1454:	e8850880 	stm	r5, {r7, r11}
    1458:	e58d60ac 	str	r6, [sp, #172]	; 0xac
    145c:	e58d40a8 	str	r4, [sp, #168]	; 0xa8
    1460:	d2855008 	addle	r5, r5, #8
    1464:	dafffff4 	ble	143c <_vfprintf_r+0x1088>
    1468:	e1a0000a 	mov	r0, r10
    146c:	e59d101c 	ldr	r1, [sp, #28]
    1470:	e1a02008 	mov	r2, r8
    1474:	eb001580 	bl	6a7c <__sprint_r>
    1478:	e3500000 	cmp	r0, #0
    147c:	1afffcb1 	bne	748 <_vfprintf_r+0x394>
    1480:	e2499010 	sub	r9, r9, #16
    1484:	e28d40a8 	add	r4, sp, #168	; 0xa8
    1488:	e3590010 	cmp	r9, #16
    148c:	e8940050 	ldm	r4, {r4, r6}
    1490:	e28d5d05 	add	r5, sp, #320	; 0x140
    1494:	caffffeb 	bgt	1448 <_vfprintf_r+0x1094>
    1498:	e59d8048 	ldr	r8, [sp, #72]	; 0x48
    149c:	e2844001 	add	r4, r4, #1
    14a0:	e0866009 	add	r6, r6, r9
    14a4:	e3540007 	cmp	r4, #7
    14a8:	e8850280 	stm	r5, {r7, r9}
    14ac:	e58d60ac 	str	r6, [sp, #172]	; 0xac
    14b0:	e58d40a8 	str	r4, [sp, #168]	; 0xa8
    14b4:	d2855008 	addle	r5, r5, #8
    14b8:	dafffeec 	ble	1070 <_vfprintf_r+0xcbc>
    14bc:	e59d002c 	ldr	r0, [sp, #44]	; 0x2c
    14c0:	e59d101c 	ldr	r1, [sp, #28]
    14c4:	e28d20a4 	add	r2, sp, #164	; 0xa4
    14c8:	eb00156b 	bl	6a7c <__sprint_r>
    14cc:	e3500000 	cmp	r0, #0
    14d0:	1afffc9c 	bne	748 <_vfprintf_r+0x394>
    14d4:	e59d60ac 	ldr	r6, [sp, #172]	; 0xac
    14d8:	e28d5d05 	add	r5, sp, #320	; 0x140
    14dc:	eafffee3 	b	1070 <_vfprintf_r+0xcbc>
    14e0:	e59d4044 	ldr	r4, [sp, #68]	; 0x44
    14e4:	e3540001 	cmp	r4, #1
    14e8:	e59d40a8 	ldr	r4, [sp, #168]	; 0xa8
    14ec:	e2866001 	add	r6, r6, #1
    14f0:	e2844001 	add	r4, r4, #1
    14f4:	da000156 	ble	1a54 <_vfprintf_r+0x16a0>
    14f8:	e59dc04c 	ldr	r12, [sp, #76]	; 0x4c
    14fc:	e3540007 	cmp	r4, #7
    1500:	e3a03001 	mov	r3, #1
    1504:	e585c000 	str	r12, [r5]
    1508:	e5853004 	str	r3, [r5, #4]
    150c:	e58d60ac 	str	r6, [sp, #172]	; 0xac
    1510:	e58d40a8 	str	r4, [sp, #168]	; 0xa8
    1514:	d2855008 	addle	r5, r5, #8
    1518:	ca000160 	bgt	1aa0 <_vfprintf_r+0x16ec>
    151c:	e59d7064 	ldr	r7, [sp, #100]	; 0x64
    1520:	e2844001 	add	r4, r4, #1
    1524:	e59db058 	ldr	r11, [sp, #88]	; 0x58
    1528:	e0866007 	add	r6, r6, r7
    152c:	e3540007 	cmp	r4, #7
    1530:	e585b000 	str	r11, [r5]
    1534:	e5857004 	str	r7, [r5, #4]
    1538:	e58d60ac 	str	r6, [sp, #172]	; 0xac
    153c:	e58d40a8 	str	r4, [sp, #168]	; 0xa8
    1540:	d2855008 	addle	r5, r5, #8
    1544:	ca00015f 	bgt	1ac8 <_vfprintf_r+0x1714>
    1548:	e28d1068 	add	r1, sp, #104	; 0x68
    154c:	e8910003 	ldm	r1, {r0, r1}
    1550:	e3a02000 	mov	r2, #0
    1554:	e3a03000 	mov	r3, #0
    1558:	eb0021d0 	bl	9ca0 <__aeabi_dcmpeq>
    155c:	e3500000 	cmp	r0, #0
    1560:	e59d7044 	ldr	r7, [sp, #68]	; 0x44
    1564:	1a00009c 	bne	17dc <_vfprintf_r+0x1428>
    1568:	e59dc04c 	ldr	r12, [sp, #76]	; 0x4c
    156c:	e2473001 	sub	r3, r7, #1
    1570:	e2844001 	add	r4, r4, #1
    1574:	e28c2001 	add	r2, r12, #1
    1578:	e0866003 	add	r6, r6, r3
    157c:	e3540007 	cmp	r4, #7
    1580:	e885000c 	stm	r5, {r2, r3}
    1584:	e58d60ac 	str	r6, [sp, #172]	; 0xac
    1588:	e58d40a8 	str	r4, [sp, #168]	; 0xa8
    158c:	ca00015f 	bgt	1b10 <_vfprintf_r+0x175c>
    1590:	e2855008 	add	r5, r5, #8
    1594:	e59dc070 	ldr	r12, [sp, #112]	; 0x70
    1598:	e2844001 	add	r4, r4, #1
    159c:	e086600c 	add	r6, r6, r12
    15a0:	e28d3094 	add	r3, sp, #148	; 0x94
    15a4:	e3540007 	cmp	r4, #7
    15a8:	e8851008 	stm	r5, {r3, r12}
    15ac:	e58d60ac 	str	r6, [sp, #172]	; 0xac
    15b0:	e58d40a8 	str	r4, [sp, #168]	; 0xa8
    15b4:	dafffef2 	ble	1184 <_vfprintf_r+0xdd0>
    15b8:	e59d002c 	ldr	r0, [sp, #44]	; 0x2c
    15bc:	e59d101c 	ldr	r1, [sp, #28]
    15c0:	e28d20a4 	add	r2, sp, #164	; 0xa4
    15c4:	eb00152c 	bl	6a7c <__sprint_r>
    15c8:	e3500000 	cmp	r0, #0
    15cc:	1afffc5d 	bne	748 <_vfprintf_r+0x394>
    15d0:	e28d5d05 	add	r5, sp, #320	; 0x140
    15d4:	e59d60ac 	ldr	r6, [sp, #172]	; 0xac
    15d8:	eafffeea 	b	1188 <_vfprintf_r+0xdd4>
    15dc:	e59dc054 	ldr	r12, [sp, #84]	; 0x54
    15e0:	e58d2038 	str	r2, [sp, #56]	; 0x38
    15e4:	e58dc04c 	str	r12, [sp, #76]	; 0x4c
    15e8:	eafffced 	b	9a4 <_vfprintf_r+0x5f0>
    15ec:	e59d002c 	ldr	r0, [sp, #44]	; 0x2c
    15f0:	e59d101c 	ldr	r1, [sp, #28]
    15f4:	e28d20a4 	add	r2, sp, #164	; 0xa4
    15f8:	eb00151f 	bl	6a7c <__sprint_r>
    15fc:	e3500000 	cmp	r0, #0
    1600:	1afffc50 	bne	748 <_vfprintf_r+0x394>
    1604:	e59d60ac 	ldr	r6, [sp, #172]	; 0xac
    1608:	e28d5d05 	add	r5, sp, #320	; 0x140
    160c:	eafffe94 	b	1064 <_vfprintf_r+0xcb0>
    1610:	e59d002c 	ldr	r0, [sp, #44]	; 0x2c
    1614:	e59d101c 	ldr	r1, [sp, #28]
    1618:	e28d20a4 	add	r2, sp, #164	; 0xa4
    161c:	eb001516 	bl	6a7c <__sprint_r>
    1620:	e3500000 	cmp	r0, #0
    1624:	e28db0b0 	add	r11, sp, #176	; 0xb0
    1628:	1afffc46 	bne	748 <_vfprintf_r+0x394>
    162c:	e59d60ac 	ldr	r6, [sp, #172]	; 0xac
    1630:	e28d5d05 	add	r5, sp, #320	; 0x140
    1634:	eafffe7b 	b	1028 <_vfprintf_r+0xc74>
    1638:	e59d8088 	ldr	r8, [sp, #136]	; 0x88
    163c:	e3580000 	cmp	r8, #0
    1640:	da000215 	ble	1e9c <_vfprintf_r+0x1ae8>
    1644:	e59d4060 	ldr	r4, [sp, #96]	; 0x60
    1648:	e59d7044 	ldr	r7, [sp, #68]	; 0x44
    164c:	e59dc04c 	ldr	r12, [sp, #76]	; 0x4c
    1650:	e1570004 	cmp	r7, r4
    1654:	a1a07004 	movge	r7, r4
    1658:	e59d4044 	ldr	r4, [sp, #68]	; 0x44
    165c:	e3570000 	cmp	r7, #0
    1660:	e08cb004 	add	r11, r12, r4
    1664:	da000009 	ble	1690 <_vfprintf_r+0x12dc>
    1668:	e59d40a8 	ldr	r4, [sp, #168]	; 0xa8
    166c:	e2844001 	add	r4, r4, #1
    1670:	e0866007 	add	r6, r6, r7
    1674:	e3540007 	cmp	r4, #7
    1678:	e585c000 	str	r12, [r5]
    167c:	e5857004 	str	r7, [r5, #4]
    1680:	e58d60ac 	str	r6, [sp, #172]	; 0xac
    1684:	e58d40a8 	str	r4, [sp, #168]	; 0xa8
    1688:	d2855008 	addle	r5, r5, #8
    168c:	ca0002b5 	bgt	2168 <_vfprintf_r+0x1db4>
    1690:	e59dc060 	ldr	r12, [sp, #96]	; 0x60
    1694:	e1c77fc7 	bic	r7, r7, r7, asr #31
    1698:	e067a00c 	rsb	r10, r7, r12
    169c:	e35a0000 	cmp	r10, #0
    16a0:	da000095 	ble	18fc <_vfprintf_r+0x1548>
    16a4:	e35a0010 	cmp	r10, #16
    16a8:	e59d40a8 	ldr	r4, [sp, #168]	; 0xa8
    16ac:	e59f708c 	ldr	r7, [pc, #140]	; 1740 <_vfprintf_r+0x138c>
    16b0:	da000081 	ble	18bc <_vfprintf_r+0x1508>
    16b4:	e28d80a4 	add	r8, sp, #164	; 0xa4
    16b8:	e58db038 	str	r11, [sp, #56]	; 0x38
    16bc:	e3a09010 	mov	r9, #16
    16c0:	e1a0b00a 	mov	r11, r10
    16c4:	e1a0a008 	mov	r10, r8
    16c8:	e59d802c 	ldr	r8, [sp, #44]	; 0x2c
    16cc:	ea000002 	b	16dc <_vfprintf_r+0x1328>
    16d0:	e24bb010 	sub	r11, r11, #16
    16d4:	e35b0010 	cmp	r11, #16
    16d8:	da000075 	ble	18b4 <_vfprintf_r+0x1500>
    16dc:	e2844001 	add	r4, r4, #1
    16e0:	e3540007 	cmp	r4, #7
    16e4:	e2866010 	add	r6, r6, #16
    16e8:	e8850280 	stm	r5, {r7, r9}
    16ec:	e58d60ac 	str	r6, [sp, #172]	; 0xac
    16f0:	e58d40a8 	str	r4, [sp, #168]	; 0xa8
    16f4:	d2855008 	addle	r5, r5, #8
    16f8:	dafffff4 	ble	16d0 <_vfprintf_r+0x131c>
    16fc:	e1a00008 	mov	r0, r8
    1700:	e59d101c 	ldr	r1, [sp, #28]
    1704:	e1a0200a 	mov	r2, r10
    1708:	eb0014db 	bl	6a7c <__sprint_r>
    170c:	e3500000 	cmp	r0, #0
    1710:	1afffc0c 	bne	748 <_vfprintf_r+0x394>
    1714:	e28d40a8 	add	r4, sp, #168	; 0xa8
    1718:	e8940050 	ldm	r4, {r4, r6}
    171c:	e28d5d05 	add	r5, sp, #320	; 0x140
    1720:	eaffffea 	b	16d0 <_vfprintf_r+0x131c>
    1724:	fffffba4 	.word	0xfffffba4
    1728:	0000af48 	.word	0x0000af48
    172c:	0000af68 	.word	0x0000af68
    1730:	0000af6c 	.word	0x0000af6c
    1734:	0000af78 	.word	0x0000af78
    1738:	0000af8c 	.word	0x0000af8c
    173c:	0000afa8 	.word	0x0000afa8
    1740:	0000af58 	.word	0x0000af58
    1744:	0000af70 	.word	0x0000af70
    1748:	0000af74 	.word	0x0000af74
    174c:	0000afa0 	.word	0x0000afa0
    1750:	66666667 	.word	0x66666667
    1754:	e59d9074 	ldr	r9, [sp, #116]	; 0x74
    1758:	e3a0000f 	mov	r0, #15
    175c:	e1a0a226 	lsr	r10, r6, #4
    1760:	e0062000 	and	r2, r6, r0
    1764:	e18aae07 	orr	r10, r10, r7, lsl #28
    1768:	e1a03227 	lsr	r3, r7, #4
    176c:	e0892002 	add	r2, r9, r2
    1770:	e1a07003 	mov	r7, r3
    1774:	e1a0600a 	mov	r6, r10
    1778:	e5d22000 	ldrb	r2, [r2]
    177c:	e196b007 	orrs	r11, r6, r7
    1780:	e1a0300c 	mov	r3, r12
    1784:	e5cc2000 	strb	r2, [r12]
    1788:	e24cc001 	sub	r12, r12, #1
    178c:	1afffff2 	bne	175c <_vfprintf_r+0x13a8>
    1790:	e59dc054 	ldr	r12, [sp, #84]	; 0x54
    1794:	e063c00c 	rsb	r12, r3, r12
    1798:	e58d304c 	str	r3, [sp, #76]	; 0x4c
    179c:	e58dc038 	str	r12, [sp, #56]	; 0x38
    17a0:	eafffc7f 	b	9a4 <_vfprintf_r+0x5f0>
    17a4:	e3570000 	cmp	r7, #0
    17a8:	03560009 	cmpeq	r6, #9
    17ac:	8a0000e1 	bhi	1b38 <_vfprintf_r+0x1784>
    17b0:	e2866030 	add	r6, r6, #48	; 0x30
    17b4:	e5cd60d7 	strb	r6, [sp, #215]	; 0xd7
    17b8:	e59d705c 	ldr	r7, [sp, #92]	; 0x5c
    17bc:	e59d607c 	ldr	r6, [sp, #124]	; 0x7c
    17c0:	e58d704c 	str	r7, [sp, #76]	; 0x4c
    17c4:	e58d6038 	str	r6, [sp, #56]	; 0x38
    17c8:	eafffc75 	b	9a4 <_vfprintf_r+0x5f0>
    17cc:	e59d6054 	ldr	r6, [sp, #84]	; 0x54
    17d0:	e58d3038 	str	r3, [sp, #56]	; 0x38
    17d4:	e58d604c 	str	r6, [sp, #76]	; 0x4c
    17d8:	eafffc71 	b	9a4 <_vfprintf_r+0x5f0>
    17dc:	e247a001 	sub	r10, r7, #1
    17e0:	e35a0000 	cmp	r10, #0
    17e4:	daffff6a 	ble	1594 <_vfprintf_r+0x11e0>
    17e8:	e35a0010 	cmp	r10, #16
    17ec:	e51f70b4 	ldr	r7, [pc, #-180]	; 1740 <_vfprintf_r+0x138c>
    17f0:	da0000bf 	ble	1af4 <_vfprintf_r+0x1740>
    17f4:	e28d80a4 	add	r8, sp, #164	; 0xa4
    17f8:	e1a03008 	mov	r3, r8
    17fc:	e3a09010 	mov	r9, #16
    1800:	e1a08007 	mov	r8, r7
    1804:	e59db02c 	ldr	r11, [sp, #44]	; 0x2c
    1808:	e1a07003 	mov	r7, r3
    180c:	ea000002 	b	181c <_vfprintf_r+0x1468>
    1810:	e24aa010 	sub	r10, r10, #16
    1814:	e35a0010 	cmp	r10, #16
    1818:	da0000b4 	ble	1af0 <_vfprintf_r+0x173c>
    181c:	e2844001 	add	r4, r4, #1
    1820:	e3540007 	cmp	r4, #7
    1824:	e2866010 	add	r6, r6, #16
    1828:	e8850300 	stm	r5, {r8, r9}
    182c:	e58d60ac 	str	r6, [sp, #172]	; 0xac
    1830:	e58d40a8 	str	r4, [sp, #168]	; 0xa8
    1834:	d2855008 	addle	r5, r5, #8
    1838:	dafffff4 	ble	1810 <_vfprintf_r+0x145c>
    183c:	e1a0000b 	mov	r0, r11
    1840:	e59d101c 	ldr	r1, [sp, #28]
    1844:	e1a02007 	mov	r2, r7
    1848:	eb00148b 	bl	6a7c <__sprint_r>
    184c:	e3500000 	cmp	r0, #0
    1850:	1afffbbc 	bne	748 <_vfprintf_r+0x394>
    1854:	e28d40a8 	add	r4, sp, #168	; 0xa8
    1858:	e8940050 	ldm	r4, {r4, r6}
    185c:	e28d5d05 	add	r5, sp, #320	; 0x140
    1860:	eaffffea 	b	1810 <_vfprintf_r+0x145c>
    1864:	e1960007 	orrs	r0, r6, r7
    1868:	159db018 	ldrne	r11, [sp, #24]
    186c:	13a03030 	movne	r3, #48	; 0x30
    1870:	138bb002 	orrne	r11, r11, #2
    1874:	15cd3084 	strbne	r3, [sp, #132]	; 0x84
    1878:	15cd8085 	strbne	r8, [sp, #133]	; 0x85
    187c:	158db018 	strne	r11, [sp, #24]
    1880:	13a02001 	movne	r2, #1
    1884:	03a02000 	moveq	r2, #0
    1888:	e3a03002 	mov	r3, #2
    188c:	eafffcdd 	b	c08 <_vfprintf_r+0x854>
    1890:	e1a07008 	mov	r7, r8
    1894:	e2844001 	add	r4, r4, #1
    1898:	e086600a 	add	r6, r6, r10
    189c:	e3540007 	cmp	r4, #7
    18a0:	e8850480 	stm	r5, {r7, r10}
    18a4:	e58d60ac 	str	r6, [sp, #172]	; 0xac
    18a8:	e58d40a8 	str	r4, [sp, #168]	; 0xa8
    18ac:	dafffe34 	ble	1184 <_vfprintf_r+0xdd0>
    18b0:	eaffff40 	b	15b8 <_vfprintf_r+0x1204>
    18b4:	e1a0a00b 	mov	r10, r11
    18b8:	e59db038 	ldr	r11, [sp, #56]	; 0x38
    18bc:	e2844001 	add	r4, r4, #1
    18c0:	e086600a 	add	r6, r6, r10
    18c4:	e3540007 	cmp	r4, #7
    18c8:	e8850480 	stm	r5, {r7, r10}
    18cc:	e58d60ac 	str	r6, [sp, #172]	; 0xac
    18d0:	e58d40a8 	str	r4, [sp, #168]	; 0xa8
    18d4:	d2855008 	addle	r5, r5, #8
    18d8:	da000007 	ble	18fc <_vfprintf_r+0x1548>
    18dc:	e59d002c 	ldr	r0, [sp, #44]	; 0x2c
    18e0:	e59d101c 	ldr	r1, [sp, #28]
    18e4:	e28d20a4 	add	r2, sp, #164	; 0xa4
    18e8:	eb001463 	bl	6a7c <__sprint_r>
    18ec:	e3500000 	cmp	r0, #0
    18f0:	1afffb94 	bne	748 <_vfprintf_r+0x394>
    18f4:	e59d60ac 	ldr	r6, [sp, #172]	; 0xac
    18f8:	e28d5d05 	add	r5, sp, #320	; 0x140
    18fc:	e59d3088 	ldr	r3, [sp, #136]	; 0x88
    1900:	e59d4044 	ldr	r4, [sp, #68]	; 0x44
    1904:	e59d704c 	ldr	r7, [sp, #76]	; 0x4c
    1908:	e59dc060 	ldr	r12, [sp, #96]	; 0x60
    190c:	e1530004 	cmp	r3, r4
    1910:	e087800c 	add	r8, r7, r12
    1914:	ba000038 	blt	19fc <_vfprintf_r+0x1648>
    1918:	e59d4018 	ldr	r4, [sp, #24]
    191c:	e3140001 	tst	r4, #1
    1920:	1a000035 	bne	19fc <_vfprintf_r+0x1648>
    1924:	e59d4044 	ldr	r4, [sp, #68]	; 0x44
    1928:	e068700b 	rsb	r7, r8, r11
    192c:	e0633004 	rsb	r3, r3, r4
    1930:	e1530007 	cmp	r3, r7
    1934:	b1a07003 	movlt	r7, r3
    1938:	a1a07007 	movge	r7, r7
    193c:	e3570000 	cmp	r7, #0
    1940:	da000009 	ble	196c <_vfprintf_r+0x15b8>
    1944:	e59d40a8 	ldr	r4, [sp, #168]	; 0xa8
    1948:	e2844001 	add	r4, r4, #1
    194c:	e0866007 	add	r6, r6, r7
    1950:	e3540007 	cmp	r4, #7
    1954:	e5858000 	str	r8, [r5]
    1958:	e5857004 	str	r7, [r5, #4]
    195c:	e58d60ac 	str	r6, [sp, #172]	; 0xac
    1960:	e58d40a8 	str	r4, [sp, #168]	; 0xa8
    1964:	d2855008 	addle	r5, r5, #8
    1968:	ca000208 	bgt	2190 <_vfprintf_r+0x1ddc>
    196c:	e1c77fc7 	bic	r7, r7, r7, asr #31
    1970:	e067a003 	rsb	r10, r7, r3
    1974:	e35a0000 	cmp	r10, #0
    1978:	dafffe02 	ble	1188 <_vfprintf_r+0xdd4>
    197c:	e35a0010 	cmp	r10, #16
    1980:	e59d40a8 	ldr	r4, [sp, #168]	; 0xa8
    1984:	e51f724c 	ldr	r7, [pc, #-588]	; 1740 <_vfprintf_r+0x138c>
    1988:	daffffc1 	ble	1894 <_vfprintf_r+0x14e0>
    198c:	e28d80a4 	add	r8, sp, #164	; 0xa4
    1990:	e1a03008 	mov	r3, r8
    1994:	e3a09010 	mov	r9, #16
    1998:	e1a08007 	mov	r8, r7
    199c:	e59db02c 	ldr	r11, [sp, #44]	; 0x2c
    19a0:	e1a07003 	mov	r7, r3
    19a4:	ea000002 	b	19b4 <_vfprintf_r+0x1600>
    19a8:	e24aa010 	sub	r10, r10, #16
    19ac:	e35a0010 	cmp	r10, #16
    19b0:	daffffb6 	ble	1890 <_vfprintf_r+0x14dc>
    19b4:	e2844001 	add	r4, r4, #1
    19b8:	e3540007 	cmp	r4, #7
    19bc:	e2866010 	add	r6, r6, #16
    19c0:	e8850300 	stm	r5, {r8, r9}
    19c4:	e58d60ac 	str	r6, [sp, #172]	; 0xac
    19c8:	e58d40a8 	str	r4, [sp, #168]	; 0xa8
    19cc:	d2855008 	addle	r5, r5, #8
    19d0:	dafffff4 	ble	19a8 <_vfprintf_r+0x15f4>
    19d4:	e1a0000b 	mov	r0, r11
    19d8:	e59d101c 	ldr	r1, [sp, #28]
    19dc:	e1a02007 	mov	r2, r7
    19e0:	eb001425 	bl	6a7c <__sprint_r>
    19e4:	e3500000 	cmp	r0, #0
    19e8:	1afffb56 	bne	748 <_vfprintf_r+0x394>
    19ec:	e28d40a8 	add	r4, sp, #168	; 0xa8
    19f0:	e8940050 	ldm	r4, {r4, r6}
    19f4:	e28d5d05 	add	r5, sp, #320	; 0x140
    19f8:	eaffffea 	b	19a8 <_vfprintf_r+0x15f4>
    19fc:	e59d40a8 	ldr	r4, [sp, #168]	; 0xa8
    1a00:	e59d7064 	ldr	r7, [sp, #100]	; 0x64
    1a04:	e2844001 	add	r4, r4, #1
    1a08:	e59dc058 	ldr	r12, [sp, #88]	; 0x58
    1a0c:	e0866007 	add	r6, r6, r7
    1a10:	e3540007 	cmp	r4, #7
    1a14:	e585c000 	str	r12, [r5]
    1a18:	e5857004 	str	r7, [r5, #4]
    1a1c:	e58d60ac 	str	r6, [sp, #172]	; 0xac
    1a20:	e58d40a8 	str	r4, [sp, #168]	; 0xa8
    1a24:	d2855008 	addle	r5, r5, #8
    1a28:	daffffbd 	ble	1924 <_vfprintf_r+0x1570>
    1a2c:	e59d002c 	ldr	r0, [sp, #44]	; 0x2c
    1a30:	e59d101c 	ldr	r1, [sp, #28]
    1a34:	e28d20a4 	add	r2, sp, #164	; 0xa4
    1a38:	eb00140f 	bl	6a7c <__sprint_r>
    1a3c:	e3500000 	cmp	r0, #0
    1a40:	1afffb40 	bne	748 <_vfprintf_r+0x394>
    1a44:	e59d3088 	ldr	r3, [sp, #136]	; 0x88
    1a48:	e59d60ac 	ldr	r6, [sp, #172]	; 0xac
    1a4c:	e28d5d05 	add	r5, sp, #320	; 0x140
    1a50:	eaffffb3 	b	1924 <_vfprintf_r+0x1570>
    1a54:	e59d7018 	ldr	r7, [sp, #24]
    1a58:	e3170001 	tst	r7, #1
    1a5c:	1afffea5 	bne	14f8 <_vfprintf_r+0x1144>
    1a60:	e59d704c 	ldr	r7, [sp, #76]	; 0x4c
    1a64:	e3a03001 	mov	r3, #1
    1a68:	e3540007 	cmp	r4, #7
    1a6c:	e5857000 	str	r7, [r5]
    1a70:	e5853004 	str	r3, [r5, #4]
    1a74:	e58d60ac 	str	r6, [sp, #172]	; 0xac
    1a78:	e58d40a8 	str	r4, [sp, #168]	; 0xa8
    1a7c:	dafffec3 	ble	1590 <_vfprintf_r+0x11dc>
    1a80:	e59d002c 	ldr	r0, [sp, #44]	; 0x2c
    1a84:	e59d101c 	ldr	r1, [sp, #28]
    1a88:	e28d20a4 	add	r2, sp, #164	; 0xa4
    1a8c:	eb0013fa 	bl	6a7c <__sprint_r>
    1a90:	e3500000 	cmp	r0, #0
    1a94:	e28db0b0 	add	r11, sp, #176	; 0xb0
    1a98:	0a000022 	beq	1b28 <_vfprintf_r+0x1774>
    1a9c:	eafffb29 	b	748 <_vfprintf_r+0x394>
    1aa0:	e59d002c 	ldr	r0, [sp, #44]	; 0x2c
    1aa4:	e59d101c 	ldr	r1, [sp, #28]
    1aa8:	e28d20a4 	add	r2, sp, #164	; 0xa4
    1aac:	eb0013f2 	bl	6a7c <__sprint_r>
    1ab0:	e3500000 	cmp	r0, #0
    1ab4:	1afffb23 	bne	748 <_vfprintf_r+0x394>
    1ab8:	e28d40a8 	add	r4, sp, #168	; 0xa8
    1abc:	e8940050 	ldm	r4, {r4, r6}
    1ac0:	e28d5d05 	add	r5, sp, #320	; 0x140
    1ac4:	eafffe94 	b	151c <_vfprintf_r+0x1168>
    1ac8:	e59d002c 	ldr	r0, [sp, #44]	; 0x2c
    1acc:	e59d101c 	ldr	r1, [sp, #28]
    1ad0:	e28d20a4 	add	r2, sp, #164	; 0xa4
    1ad4:	eb0013e8 	bl	6a7c <__sprint_r>
    1ad8:	e3500000 	cmp	r0, #0
    1adc:	1afffb19 	bne	748 <_vfprintf_r+0x394>
    1ae0:	e28d40a8 	add	r4, sp, #168	; 0xa8
    1ae4:	e8940050 	ldm	r4, {r4, r6}
    1ae8:	e28d5d05 	add	r5, sp, #320	; 0x140
    1aec:	eafffe95 	b	1548 <_vfprintf_r+0x1194>
    1af0:	e1a07008 	mov	r7, r8
    1af4:	e2844001 	add	r4, r4, #1
    1af8:	e086600a 	add	r6, r6, r10
    1afc:	e3540007 	cmp	r4, #7
    1b00:	e8850480 	stm	r5, {r7, r10}
    1b04:	e58d60ac 	str	r6, [sp, #172]	; 0xac
    1b08:	e58d40a8 	str	r4, [sp, #168]	; 0xa8
    1b0c:	dafffe9f 	ble	1590 <_vfprintf_r+0x11dc>
    1b10:	e59d002c 	ldr	r0, [sp, #44]	; 0x2c
    1b14:	e59d101c 	ldr	r1, [sp, #28]
    1b18:	e28d20a4 	add	r2, sp, #164	; 0xa4
    1b1c:	eb0013d6 	bl	6a7c <__sprint_r>
    1b20:	e3500000 	cmp	r0, #0
    1b24:	1afffb07 	bne	748 <_vfprintf_r+0x394>
    1b28:	e28d40a8 	add	r4, sp, #168	; 0xa8
    1b2c:	e28d5d05 	add	r5, sp, #320	; 0x140
    1b30:	e8940050 	ldm	r4, {r4, r6}
    1b34:	eafffe96 	b	1594 <_vfprintf_r+0x11e0>
    1b38:	e59da05c 	ldr	r10, [sp, #92]	; 0x5c
    1b3c:	e1a00006 	mov	r0, r6
    1b40:	e1a01007 	mov	r1, r7
    1b44:	e3a0200a 	mov	r2, #10
    1b48:	e3a03000 	mov	r3, #0
    1b4c:	eb002088 	bl	9d74 <__aeabi_uldivmod>
    1b50:	e2822030 	add	r2, r2, #48	; 0x30
    1b54:	e5ca2000 	strb	r2, [r10]
    1b58:	e1a00006 	mov	r0, r6
    1b5c:	e1a01007 	mov	r1, r7
    1b60:	e3a0200a 	mov	r2, #10
    1b64:	e3a03000 	mov	r3, #0
    1b68:	eb002081 	bl	9d74 <__aeabi_uldivmod>
    1b6c:	e1a06000 	mov	r6, r0
    1b70:	e1a07001 	mov	r7, r1
    1b74:	e196b007 	orrs	r11, r6, r7
    1b78:	e1a0900a 	mov	r9, r10
    1b7c:	e24aa001 	sub	r10, r10, #1
    1b80:	1affffed 	bne	1b3c <_vfprintf_r+0x1788>
    1b84:	e59dc054 	ldr	r12, [sp, #84]	; 0x54
    1b88:	e069c00c 	rsb	r12, r9, r12
    1b8c:	e58d904c 	str	r9, [sp, #76]	; 0x4c
    1b90:	e58dc038 	str	r12, [sp, #56]	; 0x38
    1b94:	eafffb82 	b	9a4 <_vfprintf_r+0x5f0>
    1b98:	e3520030 	cmp	r2, #48	; 0x30
    1b9c:	13a02030 	movne	r2, #48	; 0x30
    1ba0:	059db054 	ldreq	r11, [sp, #84]	; 0x54
    1ba4:	15432001 	strbne	r2, [r3, #-1]
    1ba8:	059dc04c 	ldreq	r12, [sp, #76]	; 0x4c
    1bac:	159d3054 	ldrne	r3, [sp, #84]	; 0x54
    1bb0:	006cb00b 	rsbeq	r11, r12, r11
    1bb4:	106c3003 	rsbne	r3, r12, r3
    1bb8:	058db038 	streq	r11, [sp, #56]	; 0x38
    1bbc:	158dc04c 	strne	r12, [sp, #76]	; 0x4c
    1bc0:	158d3038 	strne	r3, [sp, #56]	; 0x38
    1bc4:	eafffb76 	b	9a4 <_vfprintf_r+0x5f0>
    1bc8:	e2766000 	rsbs	r6, r6, #0
    1bcc:	e2e77000 	rsc	r7, r7, #0
    1bd0:	e3a0302d 	mov	r3, #45	; 0x2d
    1bd4:	e1962007 	orrs	r2, r6, r7
    1bd8:	e5cd3083 	strb	r3, [sp, #131]	; 0x83
    1bdc:	03a02000 	moveq	r2, #0
    1be0:	13a02001 	movne	r2, #1
    1be4:	e3a03001 	mov	r3, #1
    1be8:	eafffb4b 	b	91c <_vfprintf_r+0x568>
    1bec:	e5d38000 	ldrb	r8, [r3]
    1bf0:	eafffa52 	b	540 <_vfprintf_r+0x18c>
    1bf4:	eb00129a 	bl	6664 <__fpclassifyd>
    1bf8:	e3500000 	cmp	r0, #0
    1bfc:	0a000111 	beq	2048 <_vfprintf_r+0x1c94>
    1c00:	e3740001 	cmn	r4, #1
    1c04:	e3c89020 	bic	r9, r8, #32
    1c08:	03a04006 	moveq	r4, #6
    1c0c:	0a000003 	beq	1c20 <_vfprintf_r+0x186c>
    1c10:	e3590047 	cmp	r9, #71	; 0x47
    1c14:	1a000001 	bne	1c20 <_vfprintf_r+0x186c>
    1c18:	e3540000 	cmp	r4, #0
    1c1c:	03a04001 	moveq	r4, #1
    1c20:	e59d6018 	ldr	r6, [sp, #24]
    1c24:	e3570000 	cmp	r7, #0
    1c28:	e3866c01 	orr	r6, r6, #256	; 0x100
    1c2c:	b2877102 	addlt	r7, r7, #-2147483648	; 0x80000000
    1c30:	b3a0b02d 	movlt	r11, #45	; 0x2d
    1c34:	a3a0b000 	movge	r11, #0
    1c38:	e2593046 	subs	r3, r9, #70	; 0x46
    1c3c:	e58d6040 	str	r6, [sp, #64]	; 0x40
    1c40:	e2736000 	rsbs	r6, r3, #0
    1c44:	e0b66003 	adcs	r6, r6, r3
    1c48:	e3560000 	cmp	r6, #0
    1c4c:	1a00016a 	bne	21fc <_vfprintf_r+0x1e48>
    1c50:	e3590045 	cmp	r9, #69	; 0x45
    1c54:	1a0001c4 	bne	236c <_vfprintf_r+0x1fb8>
    1c58:	e28d3090 	add	r3, sp, #144	; 0x90
    1c5c:	e58da020 	str	r10, [sp, #32]
    1c60:	e2846001 	add	r6, r4, #1
    1c64:	e28d1088 	add	r1, sp, #136	; 0x88
    1c68:	e28d208c 	add	r2, sp, #140	; 0x8c
    1c6c:	e58d7024 	str	r7, [sp, #36]	; 0x24
    1c70:	e3a00002 	mov	r0, #2
    1c74:	e88d0041 	stm	sp, {r0, r6}
    1c78:	e58d200c 	str	r2, [sp, #12]
    1c7c:	e58d3010 	str	r3, [sp, #16]
    1c80:	e58d1008 	str	r1, [sp, #8]
    1c84:	e59d002c 	ldr	r0, [sp, #44]	; 0x2c
    1c88:	e28d3020 	add	r3, sp, #32
    1c8c:	e893000c 	ldm	r3, {r2, r3}
    1c90:	eb000392 	bl	2ae0 <_dtoa_r>
    1c94:	e58d004c 	str	r0, [sp, #76]	; 0x4c
    1c98:	e0806006 	add	r6, r0, r6
    1c9c:	e1a0000a 	mov	r0, r10
    1ca0:	e1a01007 	mov	r1, r7
    1ca4:	e3a02000 	mov	r2, #0
    1ca8:	e3a03000 	mov	r3, #0
    1cac:	eb001ffb 	bl	9ca0 <__aeabi_dcmpeq>
    1cb0:	e3500000 	cmp	r0, #0
    1cb4:	1a000008 	bne	1cdc <_vfprintf_r+0x1928>
    1cb8:	e59d3090 	ldr	r3, [sp, #144]	; 0x90
    1cbc:	e1560003 	cmp	r6, r3
    1cc0:	91a06003 	movls	r6, r3
    1cc4:	9a000004 	bls	1cdc <_vfprintf_r+0x1928>
    1cc8:	e3a02030 	mov	r2, #48	; 0x30
    1ccc:	e4c32001 	strb	r2, [r3], #1
    1cd0:	e1530006 	cmp	r3, r6
    1cd4:	e58d3090 	str	r3, [sp, #144]	; 0x90
    1cd8:	1afffffb 	bne	1ccc <_vfprintf_r+0x1918>
    1cdc:	e59d704c 	ldr	r7, [sp, #76]	; 0x4c
    1ce0:	e3590047 	cmp	r9, #71	; 0x47
    1ce4:	e0676006 	rsb	r6, r7, r6
    1ce8:	e58d6044 	str	r6, [sp, #68]	; 0x44
    1cec:	0a000163 	beq	2280 <_vfprintf_r+0x1ecc>
    1cf0:	e3580065 	cmp	r8, #101	; 0x65
    1cf4:	da000201 	ble	2500 <_vfprintf_r+0x214c>
    1cf8:	e3580066 	cmp	r8, #102	; 0x66
    1cfc:	e59d3088 	ldr	r3, [sp, #136]	; 0x88
    1d00:	0a0001a5 	beq	239c <_vfprintf_r+0x1fe8>
    1d04:	e59dc044 	ldr	r12, [sp, #68]	; 0x44
    1d08:	e153000c 	cmp	r3, r12
    1d0c:	ba000198 	blt	2374 <_vfprintf_r+0x1fc0>
    1d10:	e59d4018 	ldr	r4, [sp, #24]
    1d14:	e3140001 	tst	r4, #1
    1d18:	12837001 	addne	r7, r3, #1
    1d1c:	01c36fc3 	biceq	r6, r3, r3, asr #31
    1d20:	11c7cfc7 	bicne	r12, r7, r7, asr #31
    1d24:	058d6020 	streq	r6, [sp, #32]
    1d28:	058d3038 	streq	r3, [sp, #56]	; 0x38
    1d2c:	158d7038 	strne	r7, [sp, #56]	; 0x38
    1d30:	158dc020 	strne	r12, [sp, #32]
    1d34:	e3a08067 	mov	r8, #103	; 0x67
    1d38:	e58d3060 	str	r3, [sp, #96]	; 0x60
    1d3c:	e35b0000 	cmp	r11, #0
    1d40:	0a000128 	beq	21e8 <_vfprintf_r+0x1e34>
    1d44:	e59db040 	ldr	r11, [sp, #64]	; 0x40
    1d48:	e3a0302d 	mov	r3, #45	; 0x2d
    1d4c:	e3a0c000 	mov	r12, #0
    1d50:	e5cd3083 	strb	r3, [sp, #131]	; 0x83
    1d54:	e58db018 	str	r11, [sp, #24]
    1d58:	e58dc040 	str	r12, [sp, #64]	; 0x40
    1d5c:	eafffb1a 	b	9cc <_vfprintf_r+0x618>
    1d60:	e59dc03c 	ldr	r12, [sp, #60]	; 0x3c
    1d64:	e28c1007 	add	r1, r12, #7
    1d68:	e3c11007 	bic	r1, r1, #7
    1d6c:	e591a000 	ldr	r10, [r1]
    1d70:	e5917004 	ldr	r7, [r1, #4]
    1d74:	e2811008 	add	r1, r1, #8
    1d78:	e58d103c 	str	r1, [sp, #60]	; 0x3c
    1d7c:	e1a0000a 	mov	r0, r10
    1d80:	e1a01007 	mov	r1, r7
    1d84:	e58d0068 	str	r0, [sp, #104]	; 0x68
    1d88:	e58d106c 	str	r1, [sp, #108]	; 0x6c
    1d8c:	eafffb6a 	b	b3c <_vfprintf_r+0x788>
    1d90:	e59d7018 	ldr	r7, [sp, #24]
    1d94:	e3170010 	tst	r7, #16
    1d98:	1a000009 	bne	1dc4 <_vfprintf_r+0x1a10>
    1d9c:	e59d4018 	ldr	r4, [sp, #24]
    1da0:	e3140040 	tst	r4, #64	; 0x40
    1da4:	0a000006 	beq	1dc4 <_vfprintf_r+0x1a10>
    1da8:	e59d603c 	ldr	r6, [sp, #60]	; 0x3c
    1dac:	e59d7034 	ldr	r7, [sp, #52]	; 0x34
    1db0:	e5963000 	ldr	r3, [r6]
    1db4:	e2866004 	add	r6, r6, #4
    1db8:	e58d603c 	str	r6, [sp, #60]	; 0x3c
    1dbc:	e1c370b0 	strh	r7, [r3]
    1dc0:	eafff9b3 	b	494 <_vfprintf_r+0xe0>
    1dc4:	e59db03c 	ldr	r11, [sp, #60]	; 0x3c
    1dc8:	e59dc034 	ldr	r12, [sp, #52]	; 0x34
    1dcc:	e59b3000 	ldr	r3, [r11]
    1dd0:	e28bb004 	add	r11, r11, #4
    1dd4:	e58db03c 	str	r11, [sp, #60]	; 0x3c
    1dd8:	e583c000 	str	r12, [r3]
    1ddc:	eafff9ac 	b	494 <_vfprintf_r+0xe0>
    1de0:	e59dc018 	ldr	r12, [sp, #24]
    1de4:	e31c0040 	tst	r12, #64	; 0x40
    1de8:	0a00008d 	beq	2024 <_vfprintf_r+0x1c70>
    1dec:	e59d603c 	ldr	r6, [sp, #60]	; 0x3c
    1df0:	e1d630f0 	ldrsh	r3, [r6]
    1df4:	eafffc4a 	b	f24 <_vfprintf_r+0xb70>
    1df8:	e59dc018 	ldr	r12, [sp, #24]
    1dfc:	e31c0040 	tst	r12, #64	; 0x40
    1e00:	0a000080 	beq	2008 <_vfprintf_r+0x1c54>
    1e04:	e59d603c 	ldr	r6, [sp, #60]	; 0x3c
    1e08:	e59db03c 	ldr	r11, [sp, #60]	; 0x3c
    1e0c:	e1d630b0 	ldrh	r3, [r6]
    1e10:	e28bb004 	add	r11, r11, #4
    1e14:	e1a06003 	mov	r6, r3
    1e18:	e3a07000 	mov	r7, #0
    1e1c:	e58db03c 	str	r11, [sp, #60]	; 0x3c
    1e20:	eafffb99 	b	c8c <_vfprintf_r+0x8d8>
    1e24:	e59dc018 	ldr	r12, [sp, #24]
    1e28:	e31c0040 	tst	r12, #64	; 0x40
    1e2c:	0a00006b 	beq	1fe0 <_vfprintf_r+0x1c2c>
    1e30:	e59d603c 	ldr	r6, [sp, #60]	; 0x3c
    1e34:	e1d620b0 	ldrh	r2, [r6]
    1e38:	eafffc17 	b	e9c <_vfprintf_r+0xae8>
    1e3c:	e59dc018 	ldr	r12, [sp, #24]
    1e40:	e21c3040 	ands	r3, r12, #64	; 0x40
    1e44:	0a00005c 	beq	1fbc <_vfprintf_r+0x1c08>
    1e48:	e59d603c 	ldr	r6, [sp, #60]	; 0x3c
    1e4c:	e59db03c 	ldr	r11, [sp, #60]	; 0x3c
    1e50:	e1d620b0 	ldrh	r2, [r6]
    1e54:	e3a07000 	mov	r7, #0
    1e58:	e1a06002 	mov	r6, r2
    1e5c:	e28bb004 	add	r11, r11, #4
    1e60:	e0522007 	subs	r2, r2, r7
    1e64:	13a02001 	movne	r2, #1
    1e68:	e58db03c 	str	r11, [sp, #60]	; 0x3c
    1e6c:	e1a03001 	mov	r3, r1
    1e70:	eafffb64 	b	c08 <_vfprintf_r+0x854>
    1e74:	e59d002c 	ldr	r0, [sp, #44]	; 0x2c
    1e78:	e59d101c 	ldr	r1, [sp, #28]
    1e7c:	e28d20a4 	add	r2, sp, #164	; 0xa4
    1e80:	eb0012fd 	bl	6a7c <__sprint_r>
    1e84:	e3500000 	cmp	r0, #0
    1e88:	e28d40b0 	add	r4, sp, #176	; 0xb0
    1e8c:	1afffa2d 	bne	748 <_vfprintf_r+0x394>
    1e90:	e59d60ac 	ldr	r6, [sp, #172]	; 0xac
    1e94:	e28d5d05 	add	r5, sp, #320	; 0x140
    1e98:	eafffd16 	b	12f8 <_vfprintf_r+0xf44>
    1e9c:	e59d40a8 	ldr	r4, [sp, #168]	; 0xa8
    1ea0:	e51f376c 	ldr	r3, [pc, #-1900]	; 173c <_vfprintf_r+0x1388>
    1ea4:	e2844001 	add	r4, r4, #1
    1ea8:	e5853000 	str	r3, [r5]
    1eac:	e2866001 	add	r6, r6, #1
    1eb0:	e3540007 	cmp	r4, #7
    1eb4:	e3a03001 	mov	r3, #1
    1eb8:	e5853004 	str	r3, [r5, #4]
    1ebc:	e58d60ac 	str	r6, [sp, #172]	; 0xac
    1ec0:	e58d40a8 	str	r4, [sp, #168]	; 0xa8
    1ec4:	d2855008 	addle	r5, r5, #8
    1ec8:	ca000074 	bgt	20a0 <_vfprintf_r+0x1cec>
    1ecc:	e3580000 	cmp	r8, #0
    1ed0:	0a00006b 	beq	2084 <_vfprintf_r+0x1cd0>
    1ed4:	e59d40a8 	ldr	r4, [sp, #168]	; 0xa8
    1ed8:	e59dc064 	ldr	r12, [sp, #100]	; 0x64
    1edc:	e2844001 	add	r4, r4, #1
    1ee0:	e59d7058 	ldr	r7, [sp, #88]	; 0x58
    1ee4:	e086600c 	add	r6, r6, r12
    1ee8:	e3540007 	cmp	r4, #7
    1eec:	e8851080 	stm	r5, {r7, r12}
    1ef0:	e58d60ac 	str	r6, [sp, #172]	; 0xac
    1ef4:	e58d40a8 	str	r4, [sp, #168]	; 0xa8
    1ef8:	d2855008 	addle	r5, r5, #8
    1efc:	ca00010e 	bgt	233c <_vfprintf_r+0x1f88>
    1f00:	e2688000 	rsb	r8, r8, #0
    1f04:	e3580000 	cmp	r8, #0
    1f08:	da00008a 	ble	2138 <_vfprintf_r+0x1d84>
    1f0c:	e3580010 	cmp	r8, #16
    1f10:	e51f77d8 	ldr	r7, [pc, #-2008]	; 1740 <_vfprintf_r+0x138c>
    1f14:	da000076 	ble	20f4 <_vfprintf_r+0x1d40>
    1f18:	e3a0a010 	mov	r10, #16
    1f1c:	e28d90a4 	add	r9, sp, #164	; 0xa4
    1f20:	e59db02c 	ldr	r11, [sp, #44]	; 0x2c
    1f24:	ea000002 	b	1f34 <_vfprintf_r+0x1b80>
    1f28:	e2488010 	sub	r8, r8, #16
    1f2c:	e3580010 	cmp	r8, #16
    1f30:	da00006f 	ble	20f4 <_vfprintf_r+0x1d40>
    1f34:	e2844001 	add	r4, r4, #1
    1f38:	e3540007 	cmp	r4, #7
    1f3c:	e2866010 	add	r6, r6, #16
    1f40:	e8850480 	stm	r5, {r7, r10}
    1f44:	e58d60ac 	str	r6, [sp, #172]	; 0xac
    1f48:	e58d40a8 	str	r4, [sp, #168]	; 0xa8
    1f4c:	d2855008 	addle	r5, r5, #8
    1f50:	dafffff4 	ble	1f28 <_vfprintf_r+0x1b74>
    1f54:	e1a0000b 	mov	r0, r11
    1f58:	e59d101c 	ldr	r1, [sp, #28]
    1f5c:	e1a02009 	mov	r2, r9
    1f60:	eb0012c5 	bl	6a7c <__sprint_r>
    1f64:	e3500000 	cmp	r0, #0
    1f68:	1afff9f6 	bne	748 <_vfprintf_r+0x394>
    1f6c:	e28d40a8 	add	r4, sp, #168	; 0xa8
    1f70:	e8940050 	ldm	r4, {r4, r6}
    1f74:	e28d5d05 	add	r5, sp, #320	; 0x140
    1f78:	eaffffea 	b	1f28 <_vfprintf_r+0x1b74>
    1f7c:	e59d30ac 	ldr	r3, [sp, #172]	; 0xac
    1f80:	e3530000 	cmp	r3, #0
    1f84:	e59d901c 	ldr	r9, [sp, #28]
    1f88:	0afff9ef 	beq	74c <_vfprintf_r+0x398>
    1f8c:	e59d002c 	ldr	r0, [sp, #44]	; 0x2c
    1f90:	e1a01009 	mov	r1, r9
    1f94:	e28d20a4 	add	r2, sp, #164	; 0xa4
    1f98:	eb0012b7 	bl	6a7c <__sprint_r>
    1f9c:	eafff9ea 	b	74c <_vfprintf_r+0x398>
    1fa0:	e59db038 	ldr	r11, [sp, #56]	; 0x38
    1fa4:	e1cbbfcb 	bic	r11, r11, r11, asr #31
    1fa8:	e58db020 	str	r11, [sp, #32]
    1fac:	e5dd3083 	ldrb	r3, [sp, #131]	; 0x83
    1fb0:	e58d703c 	str	r7, [sp, #60]	; 0x3c
    1fb4:	e58d6060 	str	r6, [sp, #96]	; 0x60
    1fb8:	eafffa81 	b	9c4 <_vfprintf_r+0x610>
    1fbc:	e59dc03c 	ldr	r12, [sp, #60]	; 0x3c
    1fc0:	e59c2000 	ldr	r2, [r12]
    1fc4:	e3a07000 	mov	r7, #0
    1fc8:	e1a06002 	mov	r6, r2
    1fcc:	e28cc004 	add	r12, r12, #4
    1fd0:	e0522007 	subs	r2, r2, r7
    1fd4:	13a02001 	movne	r2, #1
    1fd8:	e58dc03c 	str	r12, [sp, #60]	; 0x3c
    1fdc:	eafffb09 	b	c08 <_vfprintf_r+0x854>
    1fe0:	e59dc03c 	ldr	r12, [sp, #60]	; 0x3c
    1fe4:	e59c2000 	ldr	r2, [r12]
    1fe8:	e3a07000 	mov	r7, #0
    1fec:	e1a06002 	mov	r6, r2
    1ff0:	e28cc004 	add	r12, r12, #4
    1ff4:	e0522007 	subs	r2, r2, r7
    1ff8:	13a02001 	movne	r2, #1
    1ffc:	e58dc03c 	str	r12, [sp, #60]	; 0x3c
    2000:	e3a03001 	mov	r3, #1
    2004:	eafffaff 	b	c08 <_vfprintf_r+0x854>
    2008:	e59dc03c 	ldr	r12, [sp, #60]	; 0x3c
    200c:	e59c3000 	ldr	r3, [r12]
    2010:	e28cc004 	add	r12, r12, #4
    2014:	e1a06003 	mov	r6, r3
    2018:	e3a07000 	mov	r7, #0
    201c:	e58dc03c 	str	r12, [sp, #60]	; 0x3c
    2020:	eafffb19 	b	c8c <_vfprintf_r+0x8d8>
    2024:	e59dc03c 	ldr	r12, [sp, #60]	; 0x3c
    2028:	e59c3000 	ldr	r3, [r12]
    202c:	e28cc004 	add	r12, r12, #4
    2030:	e1a07fc3 	asr	r7, r3, #31
    2034:	e1a06003 	mov	r6, r3
    2038:	e1a02003 	mov	r2, r3
    203c:	e58dc03c 	str	r12, [sp, #60]	; 0x3c
    2040:	e1a03007 	mov	r3, r7
    2044:	eafffa2d 	b	900 <_vfprintf_r+0x54c>
    2048:	e51f390c 	ldr	r3, [pc, #-2316]	; 1744 <_vfprintf_r+0x1390>
    204c:	e59dc018 	ldr	r12, [sp, #24]
    2050:	e51f2910 	ldr	r2, [pc, #-2320]	; 1748 <_vfprintf_r+0x1394>
    2054:	e3580047 	cmp	r8, #71	; 0x47
    2058:	e3a0b003 	mov	r11, #3
    205c:	d1a02003 	movle	r2, r3
    2060:	e3ccc080 	bic	r12, r12, #128	; 0x80
    2064:	e58db020 	str	r11, [sp, #32]
    2068:	e58d0040 	str	r0, [sp, #64]	; 0x40
    206c:	e58d204c 	str	r2, [sp, #76]	; 0x4c
    2070:	e58dc018 	str	r12, [sp, #24]
    2074:	e5dd3083 	ldrb	r3, [sp, #131]	; 0x83
    2078:	e58db038 	str	r11, [sp, #56]	; 0x38
    207c:	e58d0060 	str	r0, [sp, #96]	; 0x60
    2080:	eafffa4f 	b	9c4 <_vfprintf_r+0x610>
    2084:	e59d7044 	ldr	r7, [sp, #68]	; 0x44
    2088:	e3570000 	cmp	r7, #0
    208c:	1affff90 	bne	1ed4 <_vfprintf_r+0x1b20>
    2090:	e59db018 	ldr	r11, [sp, #24]
    2094:	e31b0001 	tst	r11, #1
    2098:	0afffc3a 	beq	1188 <_vfprintf_r+0xdd4>
    209c:	eaffff8c 	b	1ed4 <_vfprintf_r+0x1b20>
    20a0:	e59d002c 	ldr	r0, [sp, #44]	; 0x2c
    20a4:	e59d101c 	ldr	r1, [sp, #28]
    20a8:	e28d20a4 	add	r2, sp, #164	; 0xa4
    20ac:	eb001272 	bl	6a7c <__sprint_r>
    20b0:	e3500000 	cmp	r0, #0
    20b4:	e28d40b0 	add	r4, sp, #176	; 0xb0
    20b8:	1afff9a2 	bne	748 <_vfprintf_r+0x394>
    20bc:	e59d8088 	ldr	r8, [sp, #136]	; 0x88
    20c0:	e59d60ac 	ldr	r6, [sp, #172]	; 0xac
    20c4:	e28d5d05 	add	r5, sp, #320	; 0x140
    20c8:	eaffff7f 	b	1ecc <_vfprintf_r+0x1b18>
    20cc:	e59d002c 	ldr	r0, [sp, #44]	; 0x2c
    20d0:	e59d101c 	ldr	r1, [sp, #28]
    20d4:	e28d20a4 	add	r2, sp, #164	; 0xa4
    20d8:	eb001267 	bl	6a7c <__sprint_r>
    20dc:	e3500000 	cmp	r0, #0
    20e0:	e28db0b0 	add	r11, sp, #176	; 0xb0
    20e4:	1afff997 	bne	748 <_vfprintf_r+0x394>
    20e8:	e59d60ac 	ldr	r6, [sp, #172]	; 0xac
    20ec:	e28d5d05 	add	r5, sp, #320	; 0x140
    20f0:	eafffc92 	b	1340 <_vfprintf_r+0xf8c>
    20f4:	e2844001 	add	r4, r4, #1
    20f8:	e0866008 	add	r6, r6, r8
    20fc:	e3540007 	cmp	r4, #7
    2100:	e8850180 	stm	r5, {r7, r8}
    2104:	e58d60ac 	str	r6, [sp, #172]	; 0xac
    2108:	e58d40a8 	str	r4, [sp, #168]	; 0xa8
    210c:	d2855008 	addle	r5, r5, #8
    2110:	da000008 	ble	2138 <_vfprintf_r+0x1d84>
    2114:	e59d002c 	ldr	r0, [sp, #44]	; 0x2c
    2118:	e59d101c 	ldr	r1, [sp, #28]
    211c:	e28d20a4 	add	r2, sp, #164	; 0xa4
    2120:	eb001255 	bl	6a7c <__sprint_r>
    2124:	e3500000 	cmp	r0, #0
    2128:	1afff986 	bne	748 <_vfprintf_r+0x394>
    212c:	e28d40a8 	add	r4, sp, #168	; 0xa8
    2130:	e8940050 	ldm	r4, {r4, r6}
    2134:	e28d5d05 	add	r5, sp, #320	; 0x140
    2138:	e2844001 	add	r4, r4, #1
    213c:	e59d7044 	ldr	r7, [sp, #68]	; 0x44
    2140:	eafffc07 	b	1164 <_vfprintf_r+0xdb0>
    2144:	eb001234 	bl	6a1c <strlen>
    2148:	e1c0cfc0 	bic	r12, r0, r0, asr #31
    214c:	e58d0038 	str	r0, [sp, #56]	; 0x38
    2150:	e58d6040 	str	r6, [sp, #64]	; 0x40
    2154:	e58dc020 	str	r12, [sp, #32]
    2158:	e5dd3083 	ldrb	r3, [sp, #131]	; 0x83
    215c:	e58d703c 	str	r7, [sp, #60]	; 0x3c
    2160:	e58d6060 	str	r6, [sp, #96]	; 0x60
    2164:	eafffa16 	b	9c4 <_vfprintf_r+0x610>
    2168:	e59d002c 	ldr	r0, [sp, #44]	; 0x2c
    216c:	e59d101c 	ldr	r1, [sp, #28]
    2170:	e28d20a4 	add	r2, sp, #164	; 0xa4
    2174:	eb001240 	bl	6a7c <__sprint_r>
    2178:	e3500000 	cmp	r0, #0
    217c:	e28d60b0 	add	r6, sp, #176	; 0xb0
    2180:	1afff970 	bne	748 <_vfprintf_r+0x394>
    2184:	e59d60ac 	ldr	r6, [sp, #172]	; 0xac
    2188:	e28d5d05 	add	r5, sp, #320	; 0x140
    218c:	eafffd3f 	b	1690 <_vfprintf_r+0x12dc>
    2190:	e59d002c 	ldr	r0, [sp, #44]	; 0x2c
    2194:	e59d101c 	ldr	r1, [sp, #28]
    2198:	e28d20a4 	add	r2, sp, #164	; 0xa4
    219c:	eb001236 	bl	6a7c <__sprint_r>
    21a0:	e3500000 	cmp	r0, #0
    21a4:	e28d60b0 	add	r6, sp, #176	; 0xb0
    21a8:	1afff966 	bne	748 <_vfprintf_r+0x394>
    21ac:	e59d3088 	ldr	r3, [sp, #136]	; 0x88
    21b0:	e59db044 	ldr	r11, [sp, #68]	; 0x44
    21b4:	e59d60ac 	ldr	r6, [sp, #172]	; 0xac
    21b8:	e063300b 	rsb	r3, r3, r11
    21bc:	e28d5d05 	add	r5, sp, #320	; 0x140
    21c0:	eafffde9 	b	196c <_vfprintf_r+0x15b8>
    21c4:	e3540006 	cmp	r4, #6
    21c8:	23a04006 	movcs	r4, #6
    21cc:	e1c4cfc4 	bic	r12, r4, r4, asr #31
    21d0:	e58d4038 	str	r4, [sp, #56]	; 0x38
    21d4:	e51f4a90 	ldr	r4, [pc, #-2704]	; 174c <_vfprintf_r+0x1398>
    21d8:	e58dc020 	str	r12, [sp, #32]
    21dc:	e58d703c 	str	r7, [sp, #60]	; 0x3c
    21e0:	e58d404c 	str	r4, [sp, #76]	; 0x4c
    21e4:	eafffb0a 	b	e14 <_vfprintf_r+0xa60>
    21e8:	e59d6040 	ldr	r6, [sp, #64]	; 0x40
    21ec:	e5dd3083 	ldrb	r3, [sp, #131]	; 0x83
    21f0:	e58d6018 	str	r6, [sp, #24]
    21f4:	e58db040 	str	r11, [sp, #64]	; 0x40
    21f8:	eafff9f1 	b	9c4 <_vfprintf_r+0x610>
    21fc:	e3a02003 	mov	r2, #3
    2200:	e28d3090 	add	r3, sp, #144	; 0x90
    2204:	e58da020 	str	r10, [sp, #32]
    2208:	e28d0088 	add	r0, sp, #136	; 0x88
    220c:	e28d108c 	add	r1, sp, #140	; 0x8c
    2210:	e58d7024 	str	r7, [sp, #36]	; 0x24
    2214:	e88d0014 	stm	sp, {r2, r4}
    2218:	e58d0008 	str	r0, [sp, #8]
    221c:	e58d3010 	str	r3, [sp, #16]
    2220:	e58d100c 	str	r1, [sp, #12]
    2224:	e59d002c 	ldr	r0, [sp, #44]	; 0x2c
    2228:	e28d3020 	add	r3, sp, #32
    222c:	e893000c 	ldm	r3, {r2, r3}
    2230:	eb00022a 	bl	2ae0 <_dtoa_r>
    2234:	e3590047 	cmp	r9, #71	; 0x47
    2238:	e58d004c 	str	r0, [sp, #76]	; 0x4c
    223c:	1a000002 	bne	224c <_vfprintf_r+0x1e98>
    2240:	e59dc018 	ldr	r12, [sp, #24]
    2244:	e31c0001 	tst	r12, #1
    2248:	0a000009 	beq	2274 <_vfprintf_r+0x1ec0>
    224c:	e59dc04c 	ldr	r12, [sp, #76]	; 0x4c
    2250:	e3560000 	cmp	r6, #0
    2254:	e08c6004 	add	r6, r12, r4
    2258:	0afffe8f 	beq	1c9c <_vfprintf_r+0x18e8>
    225c:	e5dc3000 	ldrb	r3, [r12]
    2260:	e3530030 	cmp	r3, #48	; 0x30
    2264:	0a000075 	beq	2440 <_vfprintf_r+0x208c>
    2268:	e59d3088 	ldr	r3, [sp, #136]	; 0x88
    226c:	e0866003 	add	r6, r6, r3
    2270:	eafffe89 	b	1c9c <_vfprintf_r+0x18e8>
    2274:	e59d3090 	ldr	r3, [sp, #144]	; 0x90
    2278:	e0603003 	rsb	r3, r0, r3
    227c:	e58d3044 	str	r3, [sp, #68]	; 0x44
    2280:	e59d0088 	ldr	r0, [sp, #136]	; 0x88
    2284:	e3700003 	cmn	r0, #3
    2288:	e1a03000 	mov	r3, r0
    228c:	ba000001 	blt	2298 <_vfprintf_r+0x1ee4>
    2290:	e1540000 	cmp	r4, r0
    2294:	aafffe9a 	bge	1d04 <_vfprintf_r+0x1950>
    2298:	e2488002 	sub	r8, r8, #2
    229c:	e2400001 	sub	r0, r0, #1
    22a0:	e3500000 	cmp	r0, #0
    22a4:	e58d0088 	str	r0, [sp, #136]	; 0x88
    22a8:	b2600000 	rsblt	r0, r0, #0
    22ac:	b3a0302d 	movlt	r3, #45	; 0x2d
    22b0:	a3a0302b 	movge	r3, #43	; 0x2b
    22b4:	e3500009 	cmp	r0, #9
    22b8:	e5cd8094 	strb	r8, [sp, #148]	; 0x94
    22bc:	e5cd3095 	strb	r3, [sp, #149]	; 0x95
    22c0:	ca000040 	bgt	23c8 <_vfprintf_r+0x2014>
    22c4:	e2800030 	add	r0, r0, #48	; 0x30
    22c8:	e3a02030 	mov	r2, #48	; 0x30
    22cc:	e28d30a0 	add	r3, sp, #160	; 0xa0
    22d0:	e5cd0097 	strb	r0, [sp, #151]	; 0x97
    22d4:	e5cd2096 	strb	r2, [sp, #150]	; 0x96
    22d8:	e2432008 	sub	r2, r3, #8
    22dc:	e59d6044 	ldr	r6, [sp, #68]	; 0x44
    22e0:	e243300c 	sub	r3, r3, #12
    22e4:	e0633002 	rsb	r3, r3, r2
    22e8:	e0867003 	add	r7, r6, r3
    22ec:	e3560001 	cmp	r6, #1
    22f0:	e58d3070 	str	r3, [sp, #112]	; 0x70
    22f4:	e58d7038 	str	r7, [sp, #56]	; 0x38
    22f8:	da000072 	ble	24c8 <_vfprintf_r+0x2114>
    22fc:	e59d6038 	ldr	r6, [sp, #56]	; 0x38
    2300:	e2866001 	add	r6, r6, #1
    2304:	e1c67fc6 	bic	r7, r6, r6, asr #31
    2308:	e3a0c000 	mov	r12, #0
    230c:	e58d6038 	str	r6, [sp, #56]	; 0x38
    2310:	e58d7020 	str	r7, [sp, #32]
    2314:	e58dc060 	str	r12, [sp, #96]	; 0x60
    2318:	eafffe87 	b	1d3c <_vfprintf_r+0x1988>
    231c:	e1c46fc4 	bic	r6, r4, r4, asr #31
    2320:	e58d0040 	str	r0, [sp, #64]	; 0x40
    2324:	e58d6020 	str	r6, [sp, #32]
    2328:	e5dd3083 	ldrb	r3, [sp, #131]	; 0x83
    232c:	e58d703c 	str	r7, [sp, #60]	; 0x3c
    2330:	e58d4038 	str	r4, [sp, #56]	; 0x38
    2334:	e58d0060 	str	r0, [sp, #96]	; 0x60
    2338:	eafff9a1 	b	9c4 <_vfprintf_r+0x610>
    233c:	e59d002c 	ldr	r0, [sp, #44]	; 0x2c
    2340:	e59d101c 	ldr	r1, [sp, #28]
    2344:	e28d20a4 	add	r2, sp, #164	; 0xa4
    2348:	eb0011cb 	bl	6a7c <__sprint_r>
    234c:	e3500000 	cmp	r0, #0
    2350:	e28db0b0 	add	r11, sp, #176	; 0xb0
    2354:	1afff8fb 	bne	748 <_vfprintf_r+0x394>
    2358:	e28d40a8 	add	r4, sp, #168	; 0xa8
    235c:	e59d8088 	ldr	r8, [sp, #136]	; 0x88
    2360:	e8940050 	ldm	r4, {r4, r6}
    2364:	e28d5d05 	add	r5, sp, #320	; 0x140
    2368:	eafffee4 	b	1f00 <_vfprintf_r+0x1b4c>
    236c:	e3a02002 	mov	r2, #2
    2370:	eaffffa2 	b	2200 <_vfprintf_r+0x1e4c>
    2374:	e3530000 	cmp	r3, #0
    2378:	e59d4044 	ldr	r4, [sp, #68]	; 0x44
    237c:	d2632002 	rsble	r2, r3, #2
    2380:	c3a02001 	movgt	r2, #1
    2384:	e0822004 	add	r2, r2, r4
    2388:	e1c26fc2 	bic	r6, r2, r2, asr #31
    238c:	e58d2038 	str	r2, [sp, #56]	; 0x38
    2390:	e58d6020 	str	r6, [sp, #32]
    2394:	e3a08067 	mov	r8, #103	; 0x67
    2398:	eafffe66 	b	1d38 <_vfprintf_r+0x1984>
    239c:	e3530000 	cmp	r3, #0
    23a0:	da000036 	ble	2480 <_vfprintf_r+0x20cc>
    23a4:	e3540000 	cmp	r4, #0
    23a8:	1a00002e 	bne	2468 <_vfprintf_r+0x20b4>
    23ac:	e59d6018 	ldr	r6, [sp, #24]
    23b0:	e3160001 	tst	r6, #1
    23b4:	1a00002b 	bne	2468 <_vfprintf_r+0x20b4>
    23b8:	e1c37fc3 	bic	r7, r3, r3, asr #31
    23bc:	e58d7020 	str	r7, [sp, #32]
    23c0:	e58d3038 	str	r3, [sp, #56]	; 0x38
    23c4:	eafffe5b 	b	1d38 <_vfprintf_r+0x1984>
    23c8:	e28d30a0 	add	r3, sp, #160	; 0xa0
    23cc:	e2832002 	add	r2, r3, #2
    23d0:	e51f1c88 	ldr	r1, [pc, #-3208]	; 1750 <_vfprintf_r+0x139c>
    23d4:	e0cc4091 	smull	r4, r12, r1, r0
    23d8:	e1a01fc0 	asr	r1, r0, #31
    23dc:	e061114c 	rsb	r1, r1, r12, asr #2
    23e0:	e081c101 	add	r12, r1, r1, lsl #2
    23e4:	e040c08c 	sub	r12, r0, r12, lsl #1
    23e8:	e1a00001 	mov	r0, r1
    23ec:	e3500009 	cmp	r0, #9
    23f0:	e1a01002 	mov	r1, r2
    23f4:	e28c2030 	add	r2, r12, #48	; 0x30
    23f8:	e5c12000 	strb	r2, [r1]
    23fc:	e2412001 	sub	r2, r1, #1
    2400:	cafffff2 	bgt	23d0 <_vfprintf_r+0x201c>
    2404:	e2834003 	add	r4, r3, #3
    2408:	e2800030 	add	r0, r0, #48	; 0x30
    240c:	e1540002 	cmp	r4, r2
    2410:	e5410001 	strb	r0, [r1, #-1]
    2414:	9a000037 	bls	24f8 <_vfprintf_r+0x2144>
    2418:	e243c00b 	sub	r12, r3, #11
    241c:	e1a02001 	mov	r2, r1
    2420:	ea000000 	b	2428 <_vfprintf_r+0x2074>
    2424:	e4d20001 	ldrb	r0, [r2], #1
    2428:	e1520004 	cmp	r2, r4
    242c:	e5ec0001 	strb	r0, [r12, #1]!
    2430:	1afffffb 	bne	2424 <_vfprintf_r+0x2070>
    2434:	e0612083 	rsb	r2, r1, r3, lsl #1
    2438:	e2422006 	sub	r2, r2, #6
    243c:	eaffffa6 	b	22dc <_vfprintf_r+0x1f28>
    2440:	e3a03000 	mov	r3, #0
    2444:	e1a0000a 	mov	r0, r10
    2448:	e1a01007 	mov	r1, r7
    244c:	e3a02000 	mov	r2, #0
    2450:	eb001e12 	bl	9ca0 <__aeabi_dcmpeq>
    2454:	e3500000 	cmp	r0, #0
    2458:	02643001 	rsbeq	r3, r4, #1
    245c:	058d3088 	streq	r3, [sp, #136]	; 0x88
    2460:	0affff81 	beq	226c <_vfprintf_r+0x1eb8>
    2464:	eaffff7f 	b	2268 <_vfprintf_r+0x1eb4>
    2468:	e2844001 	add	r4, r4, #1
    246c:	e0834004 	add	r4, r3, r4
    2470:	e1c4cfc4 	bic	r12, r4, r4, asr #31
    2474:	e58d4038 	str	r4, [sp, #56]	; 0x38
    2478:	e58dc020 	str	r12, [sp, #32]
    247c:	eafffe2d 	b	1d38 <_vfprintf_r+0x1984>
    2480:	e3540000 	cmp	r4, #0
    2484:	1a000016 	bne	24e4 <_vfprintf_r+0x2130>
    2488:	e59d6018 	ldr	r6, [sp, #24]
    248c:	e3160001 	tst	r6, #1
    2490:	1a000013 	bne	24e4 <_vfprintf_r+0x2130>
    2494:	e3a07001 	mov	r7, #1
    2498:	e58d7020 	str	r7, [sp, #32]
    249c:	e58d7038 	str	r7, [sp, #56]	; 0x38
    24a0:	eafffe24 	b	1d38 <_vfprintf_r+0x1984>
    24a4:	e59db03c 	ldr	r11, [sp, #60]	; 0x3c
    24a8:	e59b4000 	ldr	r4, [r11]
    24ac:	e28b0004 	add	r0, r11, #4
    24b0:	e3540000 	cmp	r4, #0
    24b4:	e5d38001 	ldrb	r8, [r3, #1]
    24b8:	e58d003c 	str	r0, [sp, #60]	; 0x3c
    24bc:	e1a0300c 	mov	r3, r12
    24c0:	b3e04000 	mvnlt	r4, #0
    24c4:	eafff81d 	b	540 <_vfprintf_r+0x18c>
    24c8:	e59dc018 	ldr	r12, [sp, #24]
    24cc:	e21c3001 	ands	r3, r12, #1
    24d0:	1affff89 	bne	22fc <_vfprintf_r+0x1f48>
    24d4:	e1c74fc7 	bic	r4, r7, r7, asr #31
    24d8:	e58d4020 	str	r4, [sp, #32]
    24dc:	e58d3060 	str	r3, [sp, #96]	; 0x60
    24e0:	eafffe15 	b	1d3c <_vfprintf_r+0x1988>
    24e4:	e2844002 	add	r4, r4, #2
    24e8:	e1c47fc4 	bic	r7, r4, r4, asr #31
    24ec:	e58d4038 	str	r4, [sp, #56]	; 0x38
    24f0:	e58d7020 	str	r7, [sp, #32]
    24f4:	eafffe0f 	b	1d38 <_vfprintf_r+0x1984>
    24f8:	e243200a 	sub	r2, r3, #10
    24fc:	eaffff76 	b	22dc <_vfprintf_r+0x1f28>
    2500:	e59d0088 	ldr	r0, [sp, #136]	; 0x88
    2504:	eaffff64 	b	229c <_vfprintf_r+0x1ee8>

00002508 <vfprintf>:
    2508:	e52d4004 	push	{r4}		; (str r4, [sp, #-4]!)
    250c:	e1a03002 	mov	r3, r2
    2510:	e59f2018 	ldr	r2, [pc, #24]	; 2530 <vfprintf+0x28>
    2514:	e1a04000 	mov	r4, r0
    2518:	e1a0c001 	mov	r12, r1
    251c:	e5920000 	ldr	r0, [r2]
    2520:	e1a01004 	mov	r1, r4
    2524:	e1a0200c 	mov	r2, r12
    2528:	e8bd0010 	ldmfd	sp!, {r4}
    252c:	eafff7a0 	b	3b4 <_vfprintf_r>
    2530:	0000b170 	.word	0x0000b170

00002534 <__swsetup_r>:
    2534:	e92d4038 	push	{r3, r4, r5, lr}
    2538:	e59f3128 	ldr	r3, [pc, #296]	; 2668 <__swsetup_r+0x134>
    253c:	e5933000 	ldr	r3, [r3]
    2540:	e3530000 	cmp	r3, #0
    2544:	e1a05000 	mov	r5, r0
    2548:	e1a04001 	mov	r4, r1
    254c:	0a000002 	beq	255c <__swsetup_r+0x28>
    2550:	e5932038 	ldr	r2, [r3, #56]	; 0x38
    2554:	e3520000 	cmp	r2, #0
    2558:	0a00002e 	beq	2618 <__swsetup_r+0xe4>
    255c:	e1d430bc 	ldrh	r3, [r4, #12]
    2560:	e3130008 	tst	r3, #8
    2564:	e1a02003 	mov	r2, r3
    2568:	0a00000c 	beq	25a0 <__swsetup_r+0x6c>
    256c:	e5942010 	ldr	r2, [r4, #16]
    2570:	e3520000 	cmp	r2, #0
    2574:	0a000012 	beq	25c4 <__swsetup_r+0x90>
    2578:	e2131001 	ands	r1, r3, #1
    257c:	1a000019 	bne	25e8 <__swsetup_r+0xb4>
    2580:	e3130002 	tst	r3, #2
    2584:	05941014 	ldreq	r1, [r4, #20]
    2588:	e3520000 	cmp	r2, #0
    258c:	e5841008 	str	r1, [r4, #8]
    2590:	0a00001b 	beq	2604 <__swsetup_r+0xd0>
    2594:	e3a00000 	mov	r0, #0
    2598:	e8bd4038 	pop	{r3, r4, r5, lr}
    259c:	e12fff1e 	bx	lr
    25a0:	e3130010 	tst	r3, #16
    25a4:	0a000019 	beq	2610 <__swsetup_r+0xdc>
    25a8:	e3120004 	tst	r2, #4
    25ac:	1a00001c 	bne	2624 <__swsetup_r+0xf0>
    25b0:	e5942010 	ldr	r2, [r4, #16]
    25b4:	e3833008 	orr	r3, r3, #8
    25b8:	e3520000 	cmp	r2, #0
    25bc:	e1c430bc 	strh	r3, [r4, #12]
    25c0:	1affffec 	bne	2578 <__swsetup_r+0x44>
    25c4:	e2031d0a 	and	r1, r3, #640	; 0x280
    25c8:	e3510c02 	cmp	r1, #512	; 0x200
    25cc:	0affffe9 	beq	2578 <__swsetup_r+0x44>
    25d0:	e1a00005 	mov	r0, r5
    25d4:	e1a01004 	mov	r1, r4
    25d8:	eb0009a2 	bl	4c68 <__smakebuf_r>
    25dc:	e1d430bc 	ldrh	r3, [r4, #12]
    25e0:	e5942010 	ldr	r2, [r4, #16]
    25e4:	eaffffe3 	b	2578 <__swsetup_r+0x44>
    25e8:	e5943014 	ldr	r3, [r4, #20]
    25ec:	e3a01000 	mov	r1, #0
    25f0:	e2633000 	rsb	r3, r3, #0
    25f4:	e3520000 	cmp	r2, #0
    25f8:	e5841008 	str	r1, [r4, #8]
    25fc:	e5843018 	str	r3, [r4, #24]
    2600:	1affffe3 	bne	2594 <__swsetup_r+0x60>
    2604:	e1d430bc 	ldrh	r3, [r4, #12]
    2608:	e3130080 	tst	r3, #128	; 0x80
    260c:	0affffe0 	beq	2594 <__swsetup_r+0x60>
    2610:	e3e00000 	mvn	r0, #0
    2614:	eaffffdf 	b	2598 <__swsetup_r+0x64>
    2618:	e1a00003 	mov	r0, r3
    261c:	eb0007bb 	bl	4510 <__sinit>
    2620:	eaffffcd 	b	255c <__swsetup_r+0x28>
    2624:	e5941030 	ldr	r1, [r4, #48]	; 0x30
    2628:	e3510000 	cmp	r1, #0
    262c:	0a000007 	beq	2650 <__swsetup_r+0x11c>
    2630:	e2842040 	add	r2, r4, #64	; 0x40
    2634:	e1510002 	cmp	r1, r2
    2638:	0a000002 	beq	2648 <__swsetup_r+0x114>
    263c:	e1a00005 	mov	r0, r5
    2640:	eb000874 	bl	4818 <_free_r>
    2644:	e1d430bc 	ldrh	r3, [r4, #12]
    2648:	e3a02000 	mov	r2, #0
    264c:	e5842030 	str	r2, [r4, #48]	; 0x30
    2650:	e5942010 	ldr	r2, [r4, #16]
    2654:	e3a01000 	mov	r1, #0
    2658:	e3c33024 	bic	r3, r3, #36	; 0x24
    265c:	e5841004 	str	r1, [r4, #4]
    2660:	e5842000 	str	r2, [r4]
    2664:	eaffffd2 	b	25b4 <__swsetup_r+0x80>
    2668:	0000b170 	.word	0x0000b170

0000266c <__register_exitproc>:
    266c:	e59fc0e4 	ldr	r12, [pc, #228]	; 2758 <__register_exitproc+0xec>
    2670:	e92d41f0 	push	{r4, r5, r6, r7, r8, lr}
    2674:	e59c4000 	ldr	r4, [r12]
    2678:	e594c148 	ldr	r12, [r4, #328]	; 0x148
    267c:	e35c0000 	cmp	r12, #0
    2680:	0284cf53 	addeq	r12, r4, #332	; 0x14c
    2684:	e59c5004 	ldr	r5, [r12, #4]
    2688:	0584c148 	streq	r12, [r4, #328]	; 0x148
    268c:	e355001f 	cmp	r5, #31
    2690:	e24dd010 	sub	sp, sp, #16
    2694:	e1a06000 	mov	r6, r0
    2698:	da000015 	ble	26f4 <__register_exitproc+0x88>
    269c:	e59f00b8 	ldr	r0, [pc, #184]	; 275c <__register_exitproc+0xf0>
    26a0:	e3500000 	cmp	r0, #0
    26a4:	1a000001 	bne	26b0 <__register_exitproc+0x44>
    26a8:	e3e00000 	mvn	r0, #0
    26ac:	ea000018 	b	2714 <__register_exitproc+0xa8>
    26b0:	e3a00e19 	mov	r0, #400	; 0x190
    26b4:	e58d100c 	str	r1, [sp, #12]
    26b8:	e58d2008 	str	r2, [sp, #8]
    26bc:	e58d3004 	str	r3, [sp, #4]
    26c0:	e320f000 	nop	{0}
    26c4:	e250c000 	subs	r12, r0, #0
    26c8:	e59d100c 	ldr	r1, [sp, #12]
    26cc:	e59d2008 	ldr	r2, [sp, #8]
    26d0:	e59d3004 	ldr	r3, [sp, #4]
    26d4:	0afffff3 	beq	26a8 <__register_exitproc+0x3c>
    26d8:	e5945148 	ldr	r5, [r4, #328]	; 0x148
    26dc:	e3a00000 	mov	r0, #0
    26e0:	e58c0004 	str	r0, [r12, #4]
    26e4:	e58c5000 	str	r5, [r12]
    26e8:	e584c148 	str	r12, [r4, #328]	; 0x148
    26ec:	e58c0188 	str	r0, [r12, #392]	; 0x188
    26f0:	e58c018c 	str	r0, [r12, #396]	; 0x18c
    26f4:	e3560000 	cmp	r6, #0
    26f8:	e59c4004 	ldr	r4, [r12, #4]
    26fc:	1a000007 	bne	2720 <__register_exitproc+0xb4>
    2700:	e2843002 	add	r3, r4, #2
    2704:	e2844001 	add	r4, r4, #1
    2708:	e78c1103 	str	r1, [r12, r3, lsl #2]
    270c:	e58c4004 	str	r4, [r12, #4]
    2710:	e3a00000 	mov	r0, #0
    2714:	e28dd010 	add	sp, sp, #16
    2718:	e8bd41f0 	pop	{r4, r5, r6, r7, r8, lr}
    271c:	e12fff1e 	bx	lr
    2720:	e3a00001 	mov	r0, #1
    2724:	e1a00410 	lsl	r0, r0, r4
    2728:	e08c8104 	add	r8, r12, r4, lsl #2
    272c:	e3560002 	cmp	r6, #2
    2730:	e59c7188 	ldr	r7, [r12, #392]	; 0x188
    2734:	e5883108 	str	r3, [r8, #264]	; 0x108
    2738:	059c318c 	ldreq	r3, [r12, #396]	; 0x18c
    273c:	e1877000 	orr	r7, r7, r0
    2740:	01830000 	orreq	r0, r3, r0
    2744:	e1a05008 	mov	r5, r8
    2748:	e5882088 	str	r2, [r8, #136]	; 0x88
    274c:	e58c7188 	str	r7, [r12, #392]	; 0x188
    2750:	058c018c 	streq	r0, [r12, #396]	; 0x18c
    2754:	eaffffe9 	b	2700 <__register_exitproc+0x94>
    2758:	0000af40 	.word	0x0000af40
    275c:	00000000 	.word	0x00000000

00002760 <__call_exitprocs>:
    2760:	e92d4ff0 	push	{r4, r5, r6, r7, r8, r9, r10, r11, lr}
    2764:	e59f3168 	ldr	r3, [pc, #360]	; 28d4 <__call_exitprocs+0x174>
    2768:	e5933000 	ldr	r3, [r3]
    276c:	e24dd014 	sub	sp, sp, #20
    2770:	e58d3004 	str	r3, [sp, #4]
    2774:	e2833f52 	add	r3, r3, #328	; 0x148
    2778:	e58d0008 	str	r0, [sp, #8]
    277c:	e58d300c 	str	r3, [sp, #12]
    2780:	e1a07001 	mov	r7, r1
    2784:	e3a08001 	mov	r8, #1
    2788:	e59d3004 	ldr	r3, [sp, #4]
    278c:	e5936148 	ldr	r6, [r3, #328]	; 0x148
    2790:	e3560000 	cmp	r6, #0
    2794:	e59db00c 	ldr	r11, [sp, #12]
    2798:	0a000033 	beq	286c <__call_exitprocs+0x10c>
    279c:	e5965004 	ldr	r5, [r6, #4]
    27a0:	e2554001 	subs	r4, r5, #1
    27a4:	5286a088 	addpl	r10, r6, #136	; 0x88
    27a8:	5285501f 	addpl	r5, r5, #31
    27ac:	508a5105 	addpl	r5, r10, r5, lsl #2
    27b0:	5a000007 	bpl	27d4 <__call_exitprocs+0x74>
    27b4:	ea000029 	b	2860 <__call_exitprocs+0x100>
    27b8:	e5953000 	ldr	r3, [r5]
    27bc:	e1530007 	cmp	r3, r7
    27c0:	0a000005 	beq	27dc <__call_exitprocs+0x7c>
    27c4:	e2444001 	sub	r4, r4, #1
    27c8:	e3740001 	cmn	r4, #1
    27cc:	e2455004 	sub	r5, r5, #4
    27d0:	0a000022 	beq	2860 <__call_exitprocs+0x100>
    27d4:	e3570000 	cmp	r7, #0
    27d8:	1afffff6 	bne	27b8 <__call_exitprocs+0x58>
    27dc:	e5963004 	ldr	r3, [r6, #4]
    27e0:	e06a2005 	rsb	r2, r10, r5
    27e4:	e2433001 	sub	r3, r3, #1
    27e8:	e0862002 	add	r2, r6, r2
    27ec:	e1530004 	cmp	r3, r4
    27f0:	e5123078 	ldr	r3, [r2, #-120]	; 0xffffff88
    27f4:	13a01000 	movne	r1, #0
    27f8:	05864004 	streq	r4, [r6, #4]
    27fc:	15021078 	strne	r1, [r2, #-120]	; 0xffffff88
    2800:	e3530000 	cmp	r3, #0
    2804:	0affffee 	beq	27c4 <__call_exitprocs+0x64>
    2808:	e1a02418 	lsl	r2, r8, r4
    280c:	e5961188 	ldr	r1, [r6, #392]	; 0x188
    2810:	e1120001 	tst	r2, r1
    2814:	e5969004 	ldr	r9, [r6, #4]
    2818:	0a000016 	beq	2878 <__call_exitprocs+0x118>
    281c:	e596118c 	ldr	r1, [r6, #396]	; 0x18c
    2820:	e1120001 	tst	r2, r1
    2824:	1a000016 	bne	2884 <__call_exitprocs+0x124>
    2828:	e59d0008 	ldr	r0, [sp, #8]
    282c:	e5151080 	ldr	r1, [r5, #-128]	; 0xffffff80
    2830:	e1a0e00f 	mov	lr, pc
    2834:	e12fff13 	bx	r3
    2838:	e5963004 	ldr	r3, [r6, #4]
    283c:	e1530009 	cmp	r3, r9
    2840:	1affffd0 	bne	2788 <__call_exitprocs+0x28>
    2844:	e59b3000 	ldr	r3, [r11]
    2848:	e1530006 	cmp	r3, r6
    284c:	1affffcd 	bne	2788 <__call_exitprocs+0x28>
    2850:	e2444001 	sub	r4, r4, #1
    2854:	e3740001 	cmn	r4, #1
    2858:	e2455004 	sub	r5, r5, #4
    285c:	1affffdc 	bne	27d4 <__call_exitprocs+0x74>
    2860:	e59f1070 	ldr	r1, [pc, #112]	; 28d8 <__call_exitprocs+0x178>
    2864:	e3510000 	cmp	r1, #0
    2868:	1a000009 	bne	2894 <__call_exitprocs+0x134>
    286c:	e28dd014 	add	sp, sp, #20
    2870:	e8bd4ff0 	pop	{r4, r5, r6, r7, r8, r9, r10, r11, lr}
    2874:	e12fff1e 	bx	lr
    2878:	e1a0e00f 	mov	lr, pc
    287c:	e12fff13 	bx	r3
    2880:	eaffffec 	b	2838 <__call_exitprocs+0xd8>
    2884:	e5150080 	ldr	r0, [r5, #-128]	; 0xffffff80
    2888:	e1a0e00f 	mov	lr, pc
    288c:	e12fff13 	bx	r3
    2890:	eaffffe8 	b	2838 <__call_exitprocs+0xd8>
    2894:	e5963004 	ldr	r3, [r6, #4]
    2898:	e3530000 	cmp	r3, #0
    289c:	e5963000 	ldr	r3, [r6]
    28a0:	1a000008 	bne	28c8 <__call_exitprocs+0x168>
    28a4:	e3530000 	cmp	r3, #0
    28a8:	0a000006 	beq	28c8 <__call_exitprocs+0x168>
    28ac:	e1a00006 	mov	r0, r6
    28b0:	e58b3000 	str	r3, [r11]
    28b4:	e320f000 	nop	{0}
    28b8:	e59b6000 	ldr	r6, [r11]
    28bc:	e3560000 	cmp	r6, #0
    28c0:	1affffb5 	bne	279c <__call_exitprocs+0x3c>
    28c4:	eaffffe8 	b	286c <__call_exitprocs+0x10c>
    28c8:	e1a0b006 	mov	r11, r6
    28cc:	e1a06003 	mov	r6, r3
    28d0:	eafffff9 	b	28bc <__call_exitprocs+0x15c>
    28d4:	0000af40 	.word	0x0000af40
    28d8:	00000000 	.word	0x00000000

000028dc <register_fini>:
    28dc:	e92d4008 	push	{r3, lr}
    28e0:	e59f3010 	ldr	r3, [pc, #16]	; 28f8 <register_fini+0x1c>
    28e4:	e3530000 	cmp	r3, #0
    28e8:	159f000c 	ldrne	r0, [pc, #12]	; 28fc <register_fini+0x20>
    28ec:	1bfff67e 	blne	2ec <atexit>
    28f0:	e8bd4008 	pop	{r3, lr}
    28f4:	e12fff1e 	bx	lr
    28f8:	0000b138 	.word	0x0000b138
    28fc:	000046d8 	.word	0x000046d8

00002900 <quorem>:
    2900:	e92d4ff8 	push	{r3, r4, r5, r6, r7, r8, r9, r10, r11, lr}
    2904:	e5903010 	ldr	r3, [r0, #16]
    2908:	e5916010 	ldr	r6, [r1, #16]
    290c:	e1560003 	cmp	r6, r3
    2910:	e1a0a000 	mov	r10, r0
    2914:	e1a05001 	mov	r5, r1
    2918:	c3a00000 	movgt	r0, #0
    291c:	ca00006d 	bgt	2ad8 <quorem+0x1d8>
    2920:	e2863003 	add	r3, r6, #3
    2924:	e1a03103 	lsl	r3, r3, #2
    2928:	e0819003 	add	r9, r1, r3
    292c:	e5991004 	ldr	r1, [r9, #4]
    2930:	e08a3003 	add	r3, r10, r3
    2934:	e5930004 	ldr	r0, [r3, #4]
    2938:	e2811001 	add	r1, r1, #1
    293c:	eb001a30 	bl	9204 <__aeabi_uidiv>
    2940:	e2507000 	subs	r7, r0, #0
    2944:	e2466001 	sub	r6, r6, #1
    2948:	e2899004 	add	r9, r9, #4
    294c:	e2854014 	add	r4, r5, #20
    2950:	e28a8014 	add	r8, r10, #20
    2954:	0a000030 	beq	2a1c <quorem+0x11c>
    2958:	e3a0c000 	mov	r12, #0
    295c:	e1a02008 	mov	r2, r8
    2960:	e1a03004 	mov	r3, r4
    2964:	e1a0000c 	mov	r0, r12
    2968:	e493e004 	ldr	lr, [r3], #4
    296c:	e1a0b80e 	lsl	r11, lr, #16
    2970:	e1a0b82b 	lsr	r11, r11, #16
    2974:	e1a0e82e 	lsr	lr, lr, #16
    2978:	e02bcb97 	mla	r11, r7, r11, r12
    297c:	e00c0e97 	mul	r12, r7, lr
    2980:	e592e000 	ldr	lr, [r2]
    2984:	e08cc82b 	add	r12, r12, r11, lsr #16
    2988:	e1a0180e 	lsl	r1, lr, #16
    298c:	e0801821 	add	r1, r0, r1, lsr #16
    2990:	e1a0b80b 	lsl	r11, r11, #16
    2994:	e1a0080c 	lsl	r0, r12, #16
    2998:	e041182b 	sub	r1, r1, r11, lsr #16
    299c:	e1a00820 	lsr	r0, r0, #16
    29a0:	e060082e 	rsb	r0, r0, lr, lsr #16
    29a4:	e1a0b801 	lsl	r11, r1, #16
    29a8:	e0800841 	add	r0, r0, r1, asr #16
    29ac:	e1a0182b 	lsr	r1, r11, #16
    29b0:	e1811800 	orr	r1, r1, r0, lsl #16
    29b4:	e1590003 	cmp	r9, r3
    29b8:	e1a0c82c 	lsr	r12, r12, #16
    29bc:	e1a00840 	asr	r0, r0, #16
    29c0:	e4821004 	str	r1, [r2], #4
    29c4:	2affffe7 	bcs	2968 <quorem+0x68>
    29c8:	e2863004 	add	r3, r6, #4
    29cc:	e08a3103 	add	r3, r10, r3, lsl #2
    29d0:	e5932004 	ldr	r2, [r3, #4]
    29d4:	e3520000 	cmp	r2, #0
    29d8:	1a00000f 	bne	2a1c <quorem+0x11c>
    29dc:	e1580003 	cmp	r8, r3
    29e0:	e2832004 	add	r2, r3, #4
    29e4:	2a00000b 	bcs	2a18 <quorem+0x118>
    29e8:	e5122004 	ldr	r2, [r2, #-4]
    29ec:	e3520000 	cmp	r2, #0
    29f0:	1a000008 	bne	2a18 <quorem+0x118>
    29f4:	e2433004 	sub	r3, r3, #4
    29f8:	ea000003 	b	2a0c <quorem+0x10c>
    29fc:	e5932000 	ldr	r2, [r3]
    2a00:	e3520000 	cmp	r2, #0
    2a04:	e2433004 	sub	r3, r3, #4
    2a08:	1a000002 	bne	2a18 <quorem+0x118>
    2a0c:	e1580003 	cmp	r8, r3
    2a10:	e2466001 	sub	r6, r6, #1
    2a14:	3afffff8 	bcc	29fc <quorem+0xfc>
    2a18:	e58a6010 	str	r6, [r10, #16]
    2a1c:	e1a0000a 	mov	r0, r10
    2a20:	e1a01005 	mov	r1, r5
    2a24:	eb000d9c 	bl	609c <__mcmp>
    2a28:	e3500000 	cmp	r0, #0
    2a2c:	ba000028 	blt	2ad4 <quorem+0x1d4>
    2a30:	e2877001 	add	r7, r7, #1
    2a34:	e1a03008 	mov	r3, r8
    2a38:	e3a02000 	mov	r2, #0
    2a3c:	e4945004 	ldr	r5, [r4], #4
    2a40:	e593c000 	ldr	r12, [r3]
    2a44:	e1a01805 	lsl	r1, r5, #16
    2a48:	e1a0080c 	lsl	r0, r12, #16
    2a4c:	e1a01821 	lsr	r1, r1, #16
    2a50:	e0611820 	rsb	r1, r1, r0, lsr #16
    2a54:	e0811002 	add	r1, r1, r2
    2a58:	e1a02825 	lsr	r2, r5, #16
    2a5c:	e062282c 	rsb	r2, r2, r12, lsr #16
    2a60:	e1a00801 	lsl	r0, r1, #16
    2a64:	e0822841 	add	r2, r2, r1, asr #16
    2a68:	e1a01820 	lsr	r1, r0, #16
    2a6c:	e1811802 	orr	r1, r1, r2, lsl #16
    2a70:	e1590004 	cmp	r9, r4
    2a74:	e1a02842 	asr	r2, r2, #16
    2a78:	e4831004 	str	r1, [r3], #4
    2a7c:	2affffee 	bcs	2a3c <quorem+0x13c>
    2a80:	e2863004 	add	r3, r6, #4
    2a84:	e08a3103 	add	r3, r10, r3, lsl #2
    2a88:	e5932004 	ldr	r2, [r3, #4]
    2a8c:	e3520000 	cmp	r2, #0
    2a90:	1a00000f 	bne	2ad4 <quorem+0x1d4>
    2a94:	e1580003 	cmp	r8, r3
    2a98:	e2832004 	add	r2, r3, #4
    2a9c:	2a00000b 	bcs	2ad0 <quorem+0x1d0>
    2aa0:	e5122004 	ldr	r2, [r2, #-4]
    2aa4:	e3520000 	cmp	r2, #0
    2aa8:	1a000008 	bne	2ad0 <quorem+0x1d0>
    2aac:	e2433004 	sub	r3, r3, #4
    2ab0:	ea000003 	b	2ac4 <quorem+0x1c4>
    2ab4:	e5932000 	ldr	r2, [r3]
    2ab8:	e3520000 	cmp	r2, #0
    2abc:	e2433004 	sub	r3, r3, #4
    2ac0:	1a000002 	bne	2ad0 <quorem+0x1d0>
    2ac4:	e1580003 	cmp	r8, r3
    2ac8:	e2466001 	sub	r6, r6, #1
    2acc:	3afffff8 	bcc	2ab4 <quorem+0x1b4>
    2ad0:	e58a6010 	str	r6, [r10, #16]
    2ad4:	e1a00007 	mov	r0, r7
    2ad8:	e8bd4ff8 	pop	{r3, r4, r5, r6, r7, r8, r9, r10, r11, lr}
    2adc:	e12fff1e 	bx	lr

00002ae0 <_dtoa_r>:
    2ae0:	e92d4ff0 	push	{r4, r5, r6, r7, r8, r9, r10, r11, lr}
    2ae4:	e5901040 	ldr	r1, [r0, #64]	; 0x40
    2ae8:	e24dd07c 	sub	sp, sp, #124	; 0x7c
    2aec:	e3510000 	cmp	r1, #0
    2af0:	e1a06000 	mov	r6, r0
    2af4:	e59d40ac 	ldr	r4, [sp, #172]	; 0xac
    2af8:	e58d2010 	str	r2, [sp, #16]
    2afc:	e58d3014 	str	r3, [sp, #20]
    2b00:	0a000007 	beq	2b24 <_dtoa_r+0x44>
    2b04:	e5903044 	ldr	r3, [r0, #68]	; 0x44
    2b08:	e3a02001 	mov	r2, #1
    2b0c:	e1a02312 	lsl	r2, r2, r3
    2b10:	e5813004 	str	r3, [r1, #4]
    2b14:	e5812008 	str	r2, [r1, #8]
    2b18:	eb000bac 	bl	59d0 <_Bfree>
    2b1c:	e3a03000 	mov	r3, #0
    2b20:	e5863040 	str	r3, [r6, #64]	; 0x40
    2b24:	e59da014 	ldr	r10, [sp, #20]
    2b28:	e35a0000 	cmp	r10, #0
    2b2c:	b3a03001 	movlt	r3, #1
    2b30:	a3a03000 	movge	r3, #0
    2b34:	b5843000 	strlt	r3, [r4]
    2b38:	a5843000 	strge	r3, [r4]
    2b3c:	e59f3570 	ldr	r3, [pc, #1392]	; 30b4 <_dtoa_r+0x5d4>
    2b40:	b3caa102 	biclt	r10, r10, #-2147483648	; 0x80000000
    2b44:	e59f2568 	ldr	r2, [pc, #1384]	; 30b4 <_dtoa_r+0x5d4>
    2b48:	b1a0100a 	movlt	r1, r10
    2b4c:	e00a3003 	and	r3, r10, r3
    2b50:	b58d1014 	strlt	r1, [sp, #20]
    2b54:	e1530002 	cmp	r3, r2
    2b58:	0a000016 	beq	2bb8 <_dtoa_r+0xd8>
    2b5c:	e28d5010 	add	r5, sp, #16
    2b60:	e8950030 	ldm	r5, {r4, r5}
    2b64:	e3a02000 	mov	r2, #0
    2b68:	e1a00004 	mov	r0, r4
    2b6c:	e1a01005 	mov	r1, r5
    2b70:	e3a03000 	mov	r3, #0
    2b74:	eb001c49 	bl	9ca0 <__aeabi_dcmpeq>
    2b78:	e3500000 	cmp	r0, #0
    2b7c:	0a00001e 	beq	2bfc <_dtoa_r+0x11c>
    2b80:	e59d40b0 	ldr	r4, [sp, #176]	; 0xb0
    2b84:	e59dc0a8 	ldr	r12, [sp, #168]	; 0xa8
    2b88:	e3a03001 	mov	r3, #1
    2b8c:	e3540000 	cmp	r4, #0
    2b90:	e58c3000 	str	r3, [r12]
    2b94:	0a00009a 	beq	2e04 <_dtoa_r+0x324>
    2b98:	e59f44e8 	ldr	r4, [pc, #1256]	; 3088 <_dtoa_r+0x5a8>
    2b9c:	e59dc0b0 	ldr	r12, [sp, #176]	; 0xb0
    2ba0:	e58c4000 	str	r4, [r12]
    2ba4:	e2444001 	sub	r4, r4, #1
    2ba8:	e1a00004 	mov	r0, r4
    2bac:	e28dd07c 	add	sp, sp, #124	; 0x7c
    2bb0:	e8bd4ff0 	pop	{r4, r5, r6, r7, r8, r9, r10, r11, lr}
    2bb4:	e12fff1e 	bx	lr
    2bb8:	e59d2010 	ldr	r2, [sp, #16]
    2bbc:	e59f34c8 	ldr	r3, [pc, #1224]	; 308c <_dtoa_r+0x5ac>
    2bc0:	e59d40a8 	ldr	r4, [sp, #168]	; 0xa8
    2bc4:	e3520000 	cmp	r2, #0
    2bc8:	e5843000 	str	r3, [r4]
    2bcc:	0a000079 	beq	2db8 <_dtoa_r+0x2d8>
    2bd0:	e59f44b8 	ldr	r4, [pc, #1208]	; 3090 <_dtoa_r+0x5b0>
    2bd4:	e59dc0b0 	ldr	r12, [sp, #176]	; 0xb0
    2bd8:	e35c0000 	cmp	r12, #0
    2bdc:	0afffff1 	beq	2ba8 <_dtoa_r+0xc8>
    2be0:	e5d43003 	ldrb	r3, [r4, #3]
    2be4:	e59dc0b0 	ldr	r12, [sp, #176]	; 0xb0
    2be8:	e3530000 	cmp	r3, #0
    2bec:	12843008 	addne	r3, r4, #8
    2bf0:	02843003 	addeq	r3, r4, #3
    2bf4:	e58c3000 	str	r3, [r12]
    2bf8:	eaffffea 	b	2ba8 <_dtoa_r+0xc8>
    2bfc:	e28d3074 	add	r3, sp, #116	; 0x74
    2c00:	e58d3000 	str	r3, [sp]
    2c04:	e28d3070 	add	r3, sp, #112	; 0x70
    2c08:	e58d3004 	str	r3, [sp, #4]
    2c0c:	e1a00006 	mov	r0, r6
    2c10:	e1a02004 	mov	r2, r4
    2c14:	e1a03005 	mov	r3, r5
    2c18:	eb000dd7 	bl	637c <__d2b>
    2c1c:	e1a0708a 	lsl	r7, r10, #1
    2c20:	e1b07aa7 	lsrs	r7, r7, #21
    2c24:	e1a0b000 	mov	r11, r0
    2c28:	1a00006a 	bne	2dd8 <_dtoa_r+0x2f8>
    2c2c:	e59d8070 	ldr	r8, [sp, #112]	; 0x70
    2c30:	e59d7074 	ldr	r7, [sp, #116]	; 0x74
    2c34:	e3e03e41 	mvn	r3, #1040	; 0x410
    2c38:	e0887007 	add	r7, r8, r7
    2c3c:	e1570003 	cmp	r7, r3
    2c40:	ba0001da 	blt	33b0 <_dtoa_r+0x8d0>
    2c44:	e2870e41 	add	r0, r7, #1040	; 0x410
    2c48:	e59dc010 	ldr	r12, [sp, #16]
    2c4c:	e2800002 	add	r0, r0, #2
    2c50:	e1a0003c 	lsr	r0, r12, r0
    2c54:	e283301f 	add	r3, r3, #31
    2c58:	e0673003 	rsb	r3, r7, r3
    2c5c:	e180031a 	orr	r0, r0, r10, lsl r3
    2c60:	eb001a74 	bl	9638 <__aeabi_ui2d>
    2c64:	e3a04001 	mov	r4, #1
    2c68:	e58d4060 	str	r4, [sp, #96]	; 0x60
    2c6c:	e241161f 	sub	r1, r1, #32505856	; 0x1f00000
    2c70:	e2477001 	sub	r7, r7, #1
    2c74:	e3a02000 	mov	r2, #0
    2c78:	e59f3414 	ldr	r3, [pc, #1044]	; 3094 <_dtoa_r+0x5b4>
    2c7c:	eb0019a8 	bl	9324 <__aeabi_dsub>
    2c80:	e28f3ffa 	add	r3, pc, #1000	; 0x3e8
    2c84:	e893000c 	ldm	r3, {r2, r3}
    2c88:	eb001aaa 	bl	9738 <__aeabi_dmul>
    2c8c:	e28f3ff9 	add	r3, pc, #996	; 0x3e4
    2c90:	e893000c 	ldm	r3, {r2, r3}
    2c94:	eb0019a3 	bl	9328 <__adddf3>
    2c98:	e1a04000 	mov	r4, r0
    2c9c:	e1a00007 	mov	r0, r7
    2ca0:	e1a05001 	mov	r5, r1
    2ca4:	eb001a6c 	bl	965c <__aeabi_i2d>
    2ca8:	e28f3e3d 	add	r3, pc, #976	; 0x3d0
    2cac:	e893000c 	ldm	r3, {r2, r3}
    2cb0:	eb001aa0 	bl	9738 <__aeabi_dmul>
    2cb4:	e1a02000 	mov	r2, r0
    2cb8:	e1a03001 	mov	r3, r1
    2cbc:	e1a00004 	mov	r0, r4
    2cc0:	e1a01005 	mov	r1, r5
    2cc4:	eb001997 	bl	9328 <__adddf3>
    2cc8:	e1a04000 	mov	r4, r0
    2ccc:	e1a05001 	mov	r5, r1
    2cd0:	eb001c10 	bl	9d18 <__aeabi_d2iz>
    2cd4:	e1a01005 	mov	r1, r5
    2cd8:	e1a09000 	mov	r9, r0
    2cdc:	e3a02000 	mov	r2, #0
    2ce0:	e1a00004 	mov	r0, r4
    2ce4:	e3a03000 	mov	r3, #0
    2ce8:	eb001bf2 	bl	9cb8 <__aeabi_dcmplt>
    2cec:	e3500000 	cmp	r0, #0
    2cf0:	1a0001a6 	bne	3390 <_dtoa_r+0x8b0>
    2cf4:	e3590016 	cmp	r9, #22
    2cf8:	83a04001 	movhi	r4, #1
    2cfc:	858d404c 	strhi	r4, [sp, #76]	; 0x4c
    2d00:	8a00000a 	bhi	2d30 <_dtoa_r+0x250>
    2d04:	e59f33a0 	ldr	r3, [pc, #928]	; 30ac <_dtoa_r+0x5cc>
    2d08:	e0833189 	add	r3, r3, r9, lsl #3
    2d0c:	e8930003 	ldm	r3, {r0, r1}
    2d10:	e28d3010 	add	r3, sp, #16
    2d14:	e893000c 	ldm	r3, {r2, r3}
    2d18:	eb001bf8 	bl	9d00 <__aeabi_dcmpgt>
    2d1c:	e3500000 	cmp	r0, #0
    2d20:	13a0c000 	movne	r12, #0
    2d24:	158dc04c 	strne	r12, [sp, #76]	; 0x4c
    2d28:	058d004c 	streq	r0, [sp, #76]	; 0x4c
    2d2c:	12499001 	subne	r9, r9, #1
    2d30:	e0677008 	rsb	r7, r7, r8
    2d34:	e2577001 	subs	r7, r7, #1
    2d38:	42677000 	rsbmi	r7, r7, #0
    2d3c:	43a0c000 	movmi	r12, #0
    2d40:	53a04000 	movpl	r4, #0
    2d44:	458d702c 	strmi	r7, [sp, #44]	; 0x2c
    2d48:	458dc028 	strmi	r12, [sp, #40]	; 0x28
    2d4c:	558d7028 	strpl	r7, [sp, #40]	; 0x28
    2d50:	558d402c 	strpl	r4, [sp, #44]	; 0x2c
    2d54:	e3590000 	cmp	r9, #0
    2d58:	ba000184 	blt	3370 <_dtoa_r+0x890>
    2d5c:	e59dc028 	ldr	r12, [sp, #40]	; 0x28
    2d60:	e3a04000 	mov	r4, #0
    2d64:	e08cc009 	add	r12, r12, r9
    2d68:	e58dc028 	str	r12, [sp, #40]	; 0x28
    2d6c:	e58d9048 	str	r9, [sp, #72]	; 0x48
    2d70:	e58d403c 	str	r4, [sp, #60]	; 0x3c
    2d74:	e59d40a0 	ldr	r4, [sp, #160]	; 0xa0
    2d78:	e3540009 	cmp	r4, #9
    2d7c:	8a000022 	bhi	2e0c <_dtoa_r+0x32c>
    2d80:	e3540005 	cmp	r4, #5
    2d84:	c2444004 	subgt	r4, r4, #4
    2d88:	c58d40a0 	strgt	r4, [sp, #160]	; 0xa0
    2d8c:	e59dc0a0 	ldr	r12, [sp, #160]	; 0xa0
    2d90:	e24c3002 	sub	r3, r12, #2
    2d94:	c3a04000 	movgt	r4, #0
    2d98:	d3a04001 	movle	r4, #1
    2d9c:	e3530003 	cmp	r3, #3
    2da0:	979ff103 	ldrls	pc, [pc, r3, lsl #2]
    2da4:	ea00001a 	b	2e14 <_dtoa_r+0x334>
    2da8:	00003448 	.word	0x00003448
    2dac:	000037e0 	.word	0x000037e0
    2db0:	000037d4 	.word	0x000037d4
    2db4:	000037a0 	.word	0x000037a0
    2db8:	e3ca44ff 	bic	r4, r10, #-16777216	; 0xff000000
    2dbc:	e3c4460f 	bic	r4, r4, #15728640	; 0xf00000
    2dc0:	e59f32c8 	ldr	r3, [pc, #712]	; 3090 <_dtoa_r+0x5b0>
    2dc4:	e59f22cc 	ldr	r2, [pc, #716]	; 3098 <_dtoa_r+0x5b8>
    2dc8:	e3540000 	cmp	r4, #0
    2dcc:	01a04002 	moveq	r4, r2
    2dd0:	11a04003 	movne	r4, r3
    2dd4:	eaffff7e 	b	2bd4 <_dtoa_r+0xf4>
    2dd8:	e3c534ff 	bic	r3, r5, #-16777216	; 0xff000000
    2ddc:	e3c3360f 	bic	r3, r3, #15728640	; 0xf00000
    2de0:	e1a00004 	mov	r0, r4
    2de4:	e38335ff 	orr	r3, r3, #1069547520	; 0x3fc00000
    2de8:	e2477fff 	sub	r7, r7, #1020	; 0x3fc
    2dec:	e3a04000 	mov	r4, #0
    2df0:	e3831603 	orr	r1, r3, #3145728	; 0x300000
    2df4:	e2477003 	sub	r7, r7, #3
    2df8:	e59d8070 	ldr	r8, [sp, #112]	; 0x70
    2dfc:	e58d4060 	str	r4, [sp, #96]	; 0x60
    2e00:	eaffff9b 	b	2c74 <_dtoa_r+0x194>
    2e04:	e59f4290 	ldr	r4, [pc, #656]	; 309c <_dtoa_r+0x5bc>
    2e08:	eaffff66 	b	2ba8 <_dtoa_r+0xc8>
    2e0c:	e3a04000 	mov	r4, #0
    2e10:	e58d40a0 	str	r4, [sp, #160]	; 0xa0
    2e14:	e3a04000 	mov	r4, #0
    2e18:	e5864044 	str	r4, [r6, #68]	; 0x44
    2e1c:	e1a00006 	mov	r0, r6
    2e20:	e1a01004 	mov	r1, r4
    2e24:	eb000ac6 	bl	5944 <_Balloc>
    2e28:	e3e0c000 	mvn	r12, #0
    2e2c:	e58dc044 	str	r12, [sp, #68]	; 0x44
    2e30:	e58dc038 	str	r12, [sp, #56]	; 0x38
    2e34:	e3a0c001 	mov	r12, #1
    2e38:	e58d0024 	str	r0, [sp, #36]	; 0x24
    2e3c:	e5860040 	str	r0, [r6, #64]	; 0x40
    2e40:	e58dc040 	str	r12, [sp, #64]	; 0x40
    2e44:	e58d40a4 	str	r4, [sp, #164]	; 0xa4
    2e48:	e59d3074 	ldr	r3, [sp, #116]	; 0x74
    2e4c:	e3530000 	cmp	r3, #0
    2e50:	ba0000ab 	blt	3104 <_dtoa_r+0x624>
    2e54:	e359000e 	cmp	r9, #14
    2e58:	ca0000a9 	bgt	3104 <_dtoa_r+0x624>
    2e5c:	e59d40a4 	ldr	r4, [sp, #164]	; 0xa4
    2e60:	e59dc038 	ldr	r12, [sp, #56]	; 0x38
    2e64:	e59f3240 	ldr	r3, [pc, #576]	; 30ac <_dtoa_r+0x5cc>
    2e68:	e1a02fa4 	lsr	r2, r4, #31
    2e6c:	e35c0000 	cmp	r12, #0
    2e70:	c3a02000 	movgt	r2, #0
    2e74:	d2022001 	andle	r2, r2, #1
    2e78:	e0833189 	add	r3, r3, r9, lsl #3
    2e7c:	e3520000 	cmp	r2, #0
    2e80:	e8930006 	ldm	r3, {r1, r2}
    2e84:	e58d1018 	str	r1, [sp, #24]
    2e88:	e58d201c 	str	r2, [sp, #28]
    2e8c:	1a000347 	bne	3bb0 <_dtoa_r+0x10d0>
    2e90:	e28d5010 	add	r5, sp, #16
    2e94:	e8950030 	ldm	r5, {r4, r5}
    2e98:	e1a03002 	mov	r3, r2
    2e9c:	e1a00004 	mov	r0, r4
    2ea0:	e1a02001 	mov	r2, r1
    2ea4:	e1a01005 	mov	r1, r5
    2ea8:	eb001ac6 	bl	99c8 <__aeabi_ddiv>
    2eac:	eb001b99 	bl	9d18 <__aeabi_d2iz>
    2eb0:	e1a07000 	mov	r7, r0
    2eb4:	eb0019e8 	bl	965c <__aeabi_i2d>
    2eb8:	e28d3018 	add	r3, sp, #24
    2ebc:	e893000c 	ldm	r3, {r2, r3}
    2ec0:	eb001a1c 	bl	9738 <__aeabi_dmul>
    2ec4:	e1a03001 	mov	r3, r1
    2ec8:	e1a02000 	mov	r2, r0
    2ecc:	e1a01005 	mov	r1, r5
    2ed0:	e1a00004 	mov	r0, r4
    2ed4:	eb001912 	bl	9324 <__aeabi_dsub>
    2ed8:	e59dc024 	ldr	r12, [sp, #36]	; 0x24
    2edc:	e2873030 	add	r3, r7, #48	; 0x30
    2ee0:	e4cc3001 	strb	r3, [r12], #1
    2ee4:	e58dc030 	str	r12, [sp, #48]	; 0x30
    2ee8:	e59dc038 	ldr	r12, [sp, #56]	; 0x38
    2eec:	e35c0001 	cmp	r12, #1
    2ef0:	e1a04000 	mov	r4, r0
    2ef4:	e1a05001 	mov	r5, r1
    2ef8:	e59dc030 	ldr	r12, [sp, #48]	; 0x30
    2efc:	0a000039 	beq	2fe8 <_dtoa_r+0x508>
    2f00:	e3a02000 	mov	r2, #0
    2f04:	e59f31ac 	ldr	r3, [pc, #428]	; 30b8 <_dtoa_r+0x5d8>
    2f08:	eb001a0a 	bl	9738 <__aeabi_dmul>
    2f0c:	e3a02000 	mov	r2, #0
    2f10:	e3a03000 	mov	r3, #0
    2f14:	e1a04000 	mov	r4, r0
    2f18:	e1a05001 	mov	r5, r1
    2f1c:	eb001b5f 	bl	9ca0 <__aeabi_dcmpeq>
    2f20:	e3500000 	cmp	r0, #0
    2f24:	1a00047f 	bne	4128 <_dtoa_r+0x1648>
    2f28:	e59dc024 	ldr	r12, [sp, #36]	; 0x24
    2f2c:	e59d1038 	ldr	r1, [sp, #56]	; 0x38
    2f30:	e08c8001 	add	r8, r12, r1
    2f34:	e58d9020 	str	r9, [sp, #32]
    2f38:	e58d8010 	str	r8, [sp, #16]
    2f3c:	e28ca002 	add	r10, r12, #2
    2f40:	e28d9018 	add	r9, sp, #24
    2f44:	e8990300 	ldm	r9, {r8, r9}
    2f48:	e58d6028 	str	r6, [sp, #40]	; 0x28
    2f4c:	ea000008 	b	2f74 <_dtoa_r+0x494>
    2f50:	eb0019f8 	bl	9738 <__aeabi_dmul>
    2f54:	e3a02000 	mov	r2, #0
    2f58:	e3a03000 	mov	r3, #0
    2f5c:	e1a04000 	mov	r4, r0
    2f60:	e1a05001 	mov	r5, r1
    2f64:	eb001b4d 	bl	9ca0 <__aeabi_dcmpeq>
    2f68:	e3500000 	cmp	r0, #0
    2f6c:	e28aa001 	add	r10, r10, #1
    2f70:	1a0003af 	bne	3e34 <_dtoa_r+0x1354>
    2f74:	e1a02008 	mov	r2, r8
    2f78:	e1a03009 	mov	r3, r9
    2f7c:	e1a00004 	mov	r0, r4
    2f80:	e1a01005 	mov	r1, r5
    2f84:	eb001a8f 	bl	99c8 <__aeabi_ddiv>
    2f88:	eb001b62 	bl	9d18 <__aeabi_d2iz>
    2f8c:	e1a07000 	mov	r7, r0
    2f90:	eb0019b1 	bl	965c <__aeabi_i2d>
    2f94:	e1a02008 	mov	r2, r8
    2f98:	e1a03009 	mov	r3, r9
    2f9c:	eb0019e5 	bl	9738 <__aeabi_dmul>
    2fa0:	e1a02000 	mov	r2, r0
    2fa4:	e1a03001 	mov	r3, r1
    2fa8:	e1a00004 	mov	r0, r4
    2fac:	e1a01005 	mov	r1, r5
    2fb0:	eb0018db 	bl	9324 <__aeabi_dsub>
    2fb4:	e59dc010 	ldr	r12, [sp, #16]
    2fb8:	e15a000c 	cmp	r10, r12
    2fbc:	e287c030 	add	r12, r7, #48	; 0x30
    2fc0:	e1a04000 	mov	r4, r0
    2fc4:	e1a05001 	mov	r5, r1
    2fc8:	e3a02000 	mov	r2, #0
    2fcc:	e59f30e4 	ldr	r3, [pc, #228]	; 30b8 <_dtoa_r+0x5d8>
    2fd0:	e54ac001 	strb	r12, [r10, #-1]
    2fd4:	e1a0600a 	mov	r6, r10
    2fd8:	1affffdc 	bne	2f50 <_dtoa_r+0x470>
    2fdc:	e59d9020 	ldr	r9, [sp, #32]
    2fe0:	e59d6028 	ldr	r6, [sp, #40]	; 0x28
    2fe4:	e1a0c00a 	mov	r12, r10
    2fe8:	e1a02004 	mov	r2, r4
    2fec:	e1a03005 	mov	r3, r5
    2ff0:	e1a00004 	mov	r0, r4
    2ff4:	e1a01005 	mov	r1, r5
    2ff8:	e58dc008 	str	r12, [sp, #8]
    2ffc:	eb0018c9 	bl	9328 <__adddf3>
    3000:	e1a04000 	mov	r4, r0
    3004:	e1a05001 	mov	r5, r1
    3008:	e1a02004 	mov	r2, r4
    300c:	e28d1018 	add	r1, sp, #24
    3010:	e8910003 	ldm	r1, {r0, r1}
    3014:	e1a03005 	mov	r3, r5
    3018:	eb001b26 	bl	9cb8 <__aeabi_dcmplt>
    301c:	e3500000 	cmp	r0, #0
    3020:	e59dc008 	ldr	r12, [sp, #8]
    3024:	1a00000a 	bne	3054 <_dtoa_r+0x574>
    3028:	e28d1018 	add	r1, sp, #24
    302c:	e8910003 	ldm	r1, {r0, r1}
    3030:	e1a02004 	mov	r2, r4
    3034:	e1a03005 	mov	r3, r5
    3038:	e58dc008 	str	r12, [sp, #8]
    303c:	eb001b17 	bl	9ca0 <__aeabi_dcmpeq>
    3040:	e3500000 	cmp	r0, #0
    3044:	e59dc008 	ldr	r12, [sp, #8]
    3048:	0a00037c 	beq	3e40 <_dtoa_r+0x1360>
    304c:	e3170001 	tst	r7, #1
    3050:	0a00037a 	beq	3e40 <_dtoa_r+0x1360>
    3054:	e55c8001 	ldrb	r8, [r12, #-1]
    3058:	e59d4024 	ldr	r4, [sp, #36]	; 0x24
    305c:	e58d9064 	str	r9, [sp, #100]	; 0x64
    3060:	e1a0900c 	mov	r9, r12
    3064:	e59d1030 	ldr	r1, [sp, #48]	; 0x30
    3068:	ea000017 	b	30cc <_dtoa_r+0x5ec>
    306c:	e1a00000 	nop			; (mov r0, r0)
    3070:	636f4361 	.word	0x636f4361
    3074:	3fd287a7 	.word	0x3fd287a7
    3078:	8b60c8b3 	.word	0x8b60c8b3
    307c:	3fc68a28 	.word	0x3fc68a28
    3080:	509f79fb 	.word	0x509f79fb
    3084:	3fd34413 	.word	0x3fd34413
    3088:	0000afa9 	.word	0x0000afa9
    308c:	0000270f 	.word	0x0000270f
    3090:	0000afb8 	.word	0x0000afb8
    3094:	3ff80000 	.word	0x3ff80000
    3098:	0000afac 	.word	0x0000afac
    309c:	0000afa8 	.word	0x0000afa8
    30a0:	fffffbee 	.word	0xfffffbee
    30a4:	3ff00000 	.word	0x3ff00000
    30a8:	0000b0c8 	.word	0x0000b0c8
    30ac:	0000afd8 	.word	0x0000afd8
    30b0:	40140000 	.word	0x40140000
    30b4:	7ff00000 	.word	0x7ff00000
    30b8:	40240000 	.word	0x40240000
    30bc:	401c0000 	.word	0x401c0000
    30c0:	3fe00000 	.word	0x3fe00000
    30c4:	e5598002 	ldrb	r8, [r9, #-2]
    30c8:	e1a09003 	mov	r9, r3
    30cc:	e3580039 	cmp	r8, #57	; 0x39
    30d0:	e1a02009 	mov	r2, r9
    30d4:	e2493001 	sub	r3, r9, #1
    30d8:	1a0003c2 	bne	3fe8 <_dtoa_r+0x1508>
    30dc:	e1590001 	cmp	r9, r1
    30e0:	1afffff7 	bne	30c4 <_dtoa_r+0x5e4>
    30e4:	e58d2024 	str	r2, [sp, #36]	; 0x24
    30e8:	e59dc064 	ldr	r12, [sp, #100]	; 0x64
    30ec:	e3a02030 	mov	r2, #48	; 0x30
    30f0:	e5c32000 	strb	r2, [r3]
    30f4:	e28c9001 	add	r9, r12, #1
    30f8:	e3a08031 	mov	r8, #49	; 0x31
    30fc:	e5c38000 	strb	r8, [r3]
    3100:	ea00008b 	b	3334 <_dtoa_r+0x854>
    3104:	e59d4040 	ldr	r4, [sp, #64]	; 0x40
    3108:	e3540000 	cmp	r4, #0
    310c:	1a0000ac 	bne	33c4 <_dtoa_r+0x8e4>
    3110:	e59d503c 	ldr	r5, [sp, #60]	; 0x3c
    3114:	e59d402c 	ldr	r4, [sp, #44]	; 0x2c
    3118:	e59da040 	ldr	r10, [sp, #64]	; 0x40
    311c:	e59dc028 	ldr	r12, [sp, #40]	; 0x28
    3120:	e35c0000 	cmp	r12, #0
    3124:	c3540000 	cmpgt	r4, #0
    3128:	da000009 	ble	3154 <_dtoa_r+0x674>
    312c:	e1a0300c 	mov	r3, r12
    3130:	e59dc02c 	ldr	r12, [sp, #44]	; 0x2c
    3134:	e1530004 	cmp	r3, r4
    3138:	a1a03004 	movge	r3, r4
    313c:	e063c00c 	rsb	r12, r3, r12
    3140:	e58dc02c 	str	r12, [sp, #44]	; 0x2c
    3144:	e59dc028 	ldr	r12, [sp, #40]	; 0x28
    3148:	e063c00c 	rsb	r12, r3, r12
    314c:	e58dc028 	str	r12, [sp, #40]	; 0x28
    3150:	e0634004 	rsb	r4, r3, r4
    3154:	e59dc03c 	ldr	r12, [sp, #60]	; 0x3c
    3158:	e35c0000 	cmp	r12, #0
    315c:	da000015 	ble	31b8 <_dtoa_r+0x6d8>
    3160:	e59dc040 	ldr	r12, [sp, #64]	; 0x40
    3164:	e35c0000 	cmp	r12, #0
    3168:	0a00032b 	beq	3e1c <_dtoa_r+0x133c>
    316c:	e3550000 	cmp	r5, #0
    3170:	da00000d 	ble	31ac <_dtoa_r+0x6cc>
    3174:	e1a0100a 	mov	r1, r10
    3178:	e1a02005 	mov	r2, r5
    317c:	e1a00006 	mov	r0, r6
    3180:	eb000b47 	bl	5ea4 <__pow5mult>
    3184:	e1a0a000 	mov	r10, r0
    3188:	e1a0200b 	mov	r2, r11
    318c:	e1a0100a 	mov	r1, r10
    3190:	e1a00006 	mov	r0, r6
    3194:	eb000ac9 	bl	5cc0 <__multiply>
    3198:	e1a0100b 	mov	r1, r11
    319c:	e1a07000 	mov	r7, r0
    31a0:	e1a00006 	mov	r0, r6
    31a4:	eb000a09 	bl	59d0 <_Bfree>
    31a8:	e1a0b007 	mov	r11, r7
    31ac:	e59dc03c 	ldr	r12, [sp, #60]	; 0x3c
    31b0:	e05c2005 	subs	r2, r12, r5
    31b4:	1a00035d 	bne	3f30 <_dtoa_r+0x1450>
    31b8:	e1a00006 	mov	r0, r6
    31bc:	e3a01001 	mov	r1, #1
    31c0:	eb000ab5 	bl	5c9c <__i2b>
    31c4:	e59dc048 	ldr	r12, [sp, #72]	; 0x48
    31c8:	e35c0000 	cmp	r12, #0
    31cc:	e1a07000 	mov	r7, r0
    31d0:	da000004 	ble	31e8 <_dtoa_r+0x708>
    31d4:	e1a01007 	mov	r1, r7
    31d8:	e1a00006 	mov	r0, r6
    31dc:	e1a0200c 	mov	r2, r12
    31e0:	eb000b2f 	bl	5ea4 <__pow5mult>
    31e4:	e1a07000 	mov	r7, r0
    31e8:	e59dc0a0 	ldr	r12, [sp, #160]	; 0xa0
    31ec:	e35c0001 	cmp	r12, #1
    31f0:	da00027e 	ble	3bf0 <_dtoa_r+0x1110>
    31f4:	e3a05000 	mov	r5, #0
    31f8:	e59dc048 	ldr	r12, [sp, #72]	; 0x48
    31fc:	e35c0000 	cmp	r12, #0
    3200:	03a00001 	moveq	r0, #1
    3204:	1a000247 	bne	3b28 <_dtoa_r+0x1048>
    3208:	e59dc028 	ldr	r12, [sp, #40]	; 0x28
    320c:	e080300c 	add	r3, r0, r12
    3210:	e213301f 	ands	r3, r3, #31
    3214:	0a0001d4 	beq	396c <_dtoa_r+0xe8c>
    3218:	e2632020 	rsb	r2, r3, #32
    321c:	e3520004 	cmp	r2, #4
    3220:	da0003dc 	ble	4198 <_dtoa_r+0x16b8>
    3224:	e263301c 	rsb	r3, r3, #28
    3228:	e59dc02c 	ldr	r12, [sp, #44]	; 0x2c
    322c:	e08cc003 	add	r12, r12, r3
    3230:	e58dc02c 	str	r12, [sp, #44]	; 0x2c
    3234:	e59dc028 	ldr	r12, [sp, #40]	; 0x28
    3238:	e08cc003 	add	r12, r12, r3
    323c:	e58dc028 	str	r12, [sp, #40]	; 0x28
    3240:	e0844003 	add	r4, r4, r3
    3244:	e59dc02c 	ldr	r12, [sp, #44]	; 0x2c
    3248:	e35c0000 	cmp	r12, #0
    324c:	da000004 	ble	3264 <_dtoa_r+0x784>
    3250:	e1a0100b 	mov	r1, r11
    3254:	e1a00006 	mov	r0, r6
    3258:	e1a0200c 	mov	r2, r12
    325c:	eb000b4d 	bl	5f98 <__lshift>
    3260:	e1a0b000 	mov	r11, r0
    3264:	e59dc028 	ldr	r12, [sp, #40]	; 0x28
    3268:	e35c0000 	cmp	r12, #0
    326c:	da000004 	ble	3284 <_dtoa_r+0x7a4>
    3270:	e1a01007 	mov	r1, r7
    3274:	e1a00006 	mov	r0, r6
    3278:	e1a0200c 	mov	r2, r12
    327c:	eb000b45 	bl	5f98 <__lshift>
    3280:	e1a07000 	mov	r7, r0
    3284:	e59dc04c 	ldr	r12, [sp, #76]	; 0x4c
    3288:	e35c0000 	cmp	r12, #0
    328c:	1a00022b 	bne	3b40 <_dtoa_r+0x1060>
    3290:	e59dc0a0 	ldr	r12, [sp, #160]	; 0xa0
    3294:	e59d1038 	ldr	r1, [sp, #56]	; 0x38
    3298:	e35c0002 	cmp	r12, #2
    329c:	d3a03000 	movle	r3, #0
    32a0:	c3a03001 	movgt	r3, #1
    32a4:	e3510000 	cmp	r1, #0
    32a8:	c3a03000 	movgt	r3, #0
    32ac:	e3530000 	cmp	r3, #0
    32b0:	0a000170 	beq	3878 <_dtoa_r+0xd98>
    32b4:	e59d4038 	ldr	r4, [sp, #56]	; 0x38
    32b8:	e3540000 	cmp	r4, #0
    32bc:	1a000168 	bne	3864 <_dtoa_r+0xd84>
    32c0:	e1a01007 	mov	r1, r7
    32c4:	e3a02005 	mov	r2, #5
    32c8:	e1a03004 	mov	r3, r4
    32cc:	e1a00006 	mov	r0, r6
    32d0:	eb0009c5 	bl	59ec <__multadd>
    32d4:	e1a07000 	mov	r7, r0
    32d8:	e1a01007 	mov	r1, r7
    32dc:	e1a0000b 	mov	r0, r11
    32e0:	eb000b6d 	bl	609c <__mcmp>
    32e4:	e3500000 	cmp	r0, #0
    32e8:	da00015d 	ble	3864 <_dtoa_r+0xd84>
    32ec:	e59d3024 	ldr	r3, [sp, #36]	; 0x24
    32f0:	e3a02031 	mov	r2, #49	; 0x31
    32f4:	e4c32001 	strb	r2, [r3], #1
    32f8:	e59d4024 	ldr	r4, [sp, #36]	; 0x24
    32fc:	e58d3024 	str	r3, [sp, #36]	; 0x24
    3300:	e2899001 	add	r9, r9, #1
    3304:	e3a05000 	mov	r5, #0
    3308:	e1a00006 	mov	r0, r6
    330c:	e1a01007 	mov	r1, r7
    3310:	eb0009ae 	bl	59d0 <_Bfree>
    3314:	e35a0000 	cmp	r10, #0
    3318:	0a000005 	beq	3334 <_dtoa_r+0x854>
    331c:	e155000a 	cmp	r5, r10
    3320:	13550000 	cmpne	r5, #0
    3324:	1a000198 	bne	398c <_dtoa_r+0xeac>
    3328:	e1a00006 	mov	r0, r6
    332c:	e1a0100a 	mov	r1, r10
    3330:	eb0009a6 	bl	59d0 <_Bfree>
    3334:	e1a00006 	mov	r0, r6
    3338:	e1a0100b 	mov	r1, r11
    333c:	eb0009a3 	bl	59d0 <_Bfree>
    3340:	e59dc0b0 	ldr	r12, [sp, #176]	; 0xb0
    3344:	e35c0000 	cmp	r12, #0
    3348:	e59dc024 	ldr	r12, [sp, #36]	; 0x24
    334c:	e3a02000 	mov	r2, #0
    3350:	e5cc2000 	strb	r2, [r12]
    3354:	e59dc0a8 	ldr	r12, [sp, #168]	; 0xa8
    3358:	e2893001 	add	r3, r9, #1
    335c:	e58c3000 	str	r3, [r12]
    3360:	159dc024 	ldrne	r12, [sp, #36]	; 0x24
    3364:	159d10b0 	ldrne	r1, [sp, #176]	; 0xb0
    3368:	1581c000 	strne	r12, [r1]
    336c:	eafffe0d 	b	2ba8 <_dtoa_r+0xc8>
    3370:	e59dc02c 	ldr	r12, [sp, #44]	; 0x2c
    3374:	e069c00c 	rsb	r12, r9, r12
    3378:	e58dc02c 	str	r12, [sp, #44]	; 0x2c
    337c:	e2694000 	rsb	r4, r9, #0
    3380:	e3a0c000 	mov	r12, #0
    3384:	e58d403c 	str	r4, [sp, #60]	; 0x3c
    3388:	e58dc048 	str	r12, [sp, #72]	; 0x48
    338c:	eafffe78 	b	2d74 <_dtoa_r+0x294>
    3390:	e1a00009 	mov	r0, r9
    3394:	eb0018b0 	bl	965c <__aeabi_i2d>
    3398:	e1a02004 	mov	r2, r4
    339c:	e1a03005 	mov	r3, r5
    33a0:	eb001a3e 	bl	9ca0 <__aeabi_dcmpeq>
    33a4:	e3500000 	cmp	r0, #0
    33a8:	02499001 	subeq	r9, r9, #1
    33ac:	eafffe50 	b	2cf4 <_dtoa_r+0x214>
    33b0:	e51f0318 	ldr	r0, [pc, #-792]	; 30a0 <_dtoa_r+0x5c0>
    33b4:	e59d1010 	ldr	r1, [sp, #16]
    33b8:	e0670000 	rsb	r0, r7, r0
    33bc:	e1a00011 	lsl	r0, r1, r0
    33c0:	eafffe26 	b	2c60 <_dtoa_r+0x180>
    33c4:	e59dc0a0 	ldr	r12, [sp, #160]	; 0xa0
    33c8:	e35c0001 	cmp	r12, #1
    33cc:	da0002dc 	ble	3f44 <_dtoa_r+0x1464>
    33d0:	e59dc038 	ldr	r12, [sp, #56]	; 0x38
    33d4:	e59d403c 	ldr	r4, [sp, #60]	; 0x3c
    33d8:	e24c5001 	sub	r5, r12, #1
    33dc:	e1540005 	cmp	r4, r5
    33e0:	b59dc03c 	ldrlt	r12, [sp, #60]	; 0x3c
    33e4:	b59d4048 	ldrlt	r4, [sp, #72]	; 0x48
    33e8:	b06c3005 	rsblt	r3, r12, r5
    33ec:	e59dc038 	ldr	r12, [sp, #56]	; 0x38
    33f0:	b0844003 	addlt	r4, r4, r3
    33f4:	a0655004 	rsbge	r5, r5, r4
    33f8:	b58d4048 	strlt	r4, [sp, #72]	; 0x48
    33fc:	b58d503c 	strlt	r5, [sp, #60]	; 0x3c
    3400:	b3a05000 	movlt	r5, #0
    3404:	e35c0000 	cmp	r12, #0
    3408:	b59d102c 	ldrlt	r1, [sp, #44]	; 0x2c
    340c:	a59d402c 	ldrge	r4, [sp, #44]	; 0x2c
    3410:	a59d3038 	ldrge	r3, [sp, #56]	; 0x38
    3414:	b06c4001 	rsblt	r4, r12, r1
    3418:	b3a03000 	movlt	r3, #0
    341c:	e59dc02c 	ldr	r12, [sp, #44]	; 0x2c
    3420:	e08cc003 	add	r12, r12, r3
    3424:	e58dc02c 	str	r12, [sp, #44]	; 0x2c
    3428:	e59dc028 	ldr	r12, [sp, #40]	; 0x28
    342c:	e1a00006 	mov	r0, r6
    3430:	e08cc003 	add	r12, r12, r3
    3434:	e3a01001 	mov	r1, #1
    3438:	e58dc028 	str	r12, [sp, #40]	; 0x28
    343c:	eb000a16 	bl	5c9c <__i2b>
    3440:	e1a0a000 	mov	r10, r0
    3444:	eaffff34 	b	311c <_dtoa_r+0x63c>
    3448:	e3a0c000 	mov	r12, #0
    344c:	e58dc040 	str	r12, [sp, #64]	; 0x40
    3450:	e59d10a4 	ldr	r1, [sp, #164]	; 0xa4
    3454:	e3510000 	cmp	r1, #0
    3458:	da000262 	ble	3de8 <_dtoa_r+0x1308>
    345c:	e58d1044 	str	r1, [sp, #68]	; 0x44
    3460:	e58d1038 	str	r1, [sp, #56]	; 0x38
    3464:	e1a08001 	mov	r8, r1
    3468:	e351000e 	cmp	r1, #14
    346c:	83a04000 	movhi	r4, #0
    3470:	92044001 	andls	r4, r4, #1
    3474:	e3a01000 	mov	r1, #0
    3478:	e3580017 	cmp	r8, #23
    347c:	e5861044 	str	r1, [r6, #68]	; 0x44
    3480:	9a000008 	bls	34a8 <_dtoa_r+0x9c8>
    3484:	e3a02001 	mov	r2, #1
    3488:	e3a03004 	mov	r3, #4
    348c:	e1a03083 	lsl	r3, r3, #1
    3490:	e2830014 	add	r0, r3, #20
    3494:	e1500008 	cmp	r0, r8
    3498:	e1a01002 	mov	r1, r2
    349c:	e2822001 	add	r2, r2, #1
    34a0:	9afffff9 	bls	348c <_dtoa_r+0x9ac>
    34a4:	e5861044 	str	r1, [r6, #68]	; 0x44
    34a8:	e1a00006 	mov	r0, r6
    34ac:	eb000924 	bl	5944 <_Balloc>
    34b0:	e3540000 	cmp	r4, #0
    34b4:	e58d0024 	str	r0, [sp, #36]	; 0x24
    34b8:	e5860040 	str	r0, [r6, #64]	; 0x40
    34bc:	0afffe61 	beq	2e48 <_dtoa_r+0x368>
    34c0:	e3590000 	cmp	r9, #0
    34c4:	da000134 	ble	399c <_dtoa_r+0xebc>
    34c8:	e51f2424 	ldr	r2, [pc, #-1060]	; 30ac <_dtoa_r+0x5cc>
    34cc:	e209300f 	and	r3, r9, #15
    34d0:	e1a07249 	asr	r7, r9, #4
    34d4:	e0823183 	add	r3, r2, r3, lsl #3
    34d8:	e3170010 	tst	r7, #16
    34dc:	e8930030 	ldm	r3, {r4, r5}
    34e0:	0a000123 	beq	3974 <_dtoa_r+0xe94>
    34e4:	e51f3444 	ldr	r3, [pc, #-1092]	; 30a8 <_dtoa_r+0x5c8>
    34e8:	e28d1010 	add	r1, sp, #16
    34ec:	e8910003 	ldm	r1, {r0, r1}
    34f0:	e2833020 	add	r3, r3, #32
    34f4:	e893000c 	ldm	r3, {r2, r3}
    34f8:	eb001932 	bl	99c8 <__aeabi_ddiv>
    34fc:	e58d0030 	str	r0, [sp, #48]	; 0x30
    3500:	e58d1034 	str	r1, [sp, #52]	; 0x34
    3504:	e207700f 	and	r7, r7, #15
    3508:	e3a08003 	mov	r8, #3
    350c:	e3570000 	cmp	r7, #0
    3510:	0a00000c 	beq	3548 <_dtoa_r+0xa68>
    3514:	e51fa474 	ldr	r10, [pc, #-1140]	; 30a8 <_dtoa_r+0x5c8>
    3518:	e1a00004 	mov	r0, r4
    351c:	e1a01005 	mov	r1, r5
    3520:	e3170001 	tst	r7, #1
    3524:	0a000002 	beq	3534 <_dtoa_r+0xa54>
    3528:	e89a000c 	ldm	r10, {r2, r3}
    352c:	eb001881 	bl	9738 <__aeabi_dmul>
    3530:	e2888001 	add	r8, r8, #1
    3534:	e1b070c7 	asrs	r7, r7, #1
    3538:	e28aa008 	add	r10, r10, #8
    353c:	1afffff7 	bne	3520 <_dtoa_r+0xa40>
    3540:	e1a04000 	mov	r4, r0
    3544:	e1a05001 	mov	r5, r1
    3548:	e28d1030 	add	r1, sp, #48	; 0x30
    354c:	e8910003 	ldm	r1, {r0, r1}
    3550:	e1a02004 	mov	r2, r4
    3554:	e1a03005 	mov	r3, r5
    3558:	eb00191a 	bl	99c8 <__aeabi_ddiv>
    355c:	e58d0030 	str	r0, [sp, #48]	; 0x30
    3560:	e58d1034 	str	r1, [sp, #52]	; 0x34
    3564:	e59d404c 	ldr	r4, [sp, #76]	; 0x4c
    3568:	e3540000 	cmp	r4, #0
    356c:	0a000006 	beq	358c <_dtoa_r+0xaac>
    3570:	e28d1030 	add	r1, sp, #48	; 0x30
    3574:	e8910003 	ldm	r1, {r0, r1}
    3578:	e3a02000 	mov	r2, #0
    357c:	e51f34e0 	ldr	r3, [pc, #-1248]	; 30a4 <_dtoa_r+0x5c4>
    3580:	eb0019cc 	bl	9cb8 <__aeabi_dcmplt>
    3584:	e3500000 	cmp	r0, #0
    3588:	1a000235 	bne	3e64 <_dtoa_r+0x1384>
    358c:	e1a00008 	mov	r0, r8
    3590:	eb001831 	bl	965c <__aeabi_i2d>
    3594:	e28d3030 	add	r3, sp, #48	; 0x30
    3598:	e893000c 	ldm	r3, {r2, r3}
    359c:	eb001865 	bl	9738 <__aeabi_dmul>
    35a0:	e3a02000 	mov	r2, #0
    35a4:	e51f34f0 	ldr	r3, [pc, #-1264]	; 30bc <_dtoa_r+0x5dc>
    35a8:	eb00175e 	bl	9328 <__adddf3>
    35ac:	e59dc038 	ldr	r12, [sp, #56]	; 0x38
    35b0:	e35c0000 	cmp	r12, #0
    35b4:	e1a04000 	mov	r4, r0
    35b8:	e241550d 	sub	r5, r1, #54525952	; 0x3400000
    35bc:	0a000094 	beq	3814 <_dtoa_r+0xd34>
    35c0:	e58d9064 	str	r9, [sp, #100]	; 0x64
    35c4:	e59da038 	ldr	r10, [sp, #56]	; 0x38
    35c8:	e59dc040 	ldr	r12, [sp, #64]	; 0x40
    35cc:	e35c0000 	cmp	r12, #0
    35d0:	0a00010f 	beq	3a14 <_dtoa_r+0xf34>
    35d4:	e51f3530 	ldr	r3, [pc, #-1328]	; 30ac <_dtoa_r+0x5cc>
    35d8:	e083318a 	add	r3, r3, r10, lsl #3
    35dc:	e913000c 	ldmdb	r3, {r2, r3}
    35e0:	e3a00000 	mov	r0, #0
    35e4:	e51f152c 	ldr	r1, [pc, #-1324]	; 30c0 <_dtoa_r+0x5e0>
    35e8:	eb0018f6 	bl	99c8 <__aeabi_ddiv>
    35ec:	e1a02004 	mov	r2, r4
    35f0:	e1a03005 	mov	r3, r5
    35f4:	eb00174a 	bl	9324 <__aeabi_dsub>
    35f8:	e58d0050 	str	r0, [sp, #80]	; 0x50
    35fc:	e58d1054 	str	r1, [sp, #84]	; 0x54
    3600:	e28d1030 	add	r1, sp, #48	; 0x30
    3604:	e8910003 	ldm	r1, {r0, r1}
    3608:	eb0019c2 	bl	9d18 <__aeabi_d2iz>
    360c:	e1a07000 	mov	r7, r0
    3610:	eb001811 	bl	965c <__aeabi_i2d>
    3614:	e1a02000 	mov	r2, r0
    3618:	e1a03001 	mov	r3, r1
    361c:	e28d1030 	add	r1, sp, #48	; 0x30
    3620:	e8910003 	ldm	r1, {r0, r1}
    3624:	eb00173e 	bl	9324 <__aeabi_dsub>
    3628:	e2877030 	add	r7, r7, #48	; 0x30
    362c:	e59dc024 	ldr	r12, [sp, #36]	; 0x24
    3630:	e20780ff 	and	r8, r7, #255	; 0xff
    3634:	e4cc8001 	strb	r8, [r12], #1
    3638:	e1a04000 	mov	r4, r0
    363c:	e1a05001 	mov	r5, r1
    3640:	e1a02004 	mov	r2, r4
    3644:	e28d1050 	add	r1, sp, #80	; 0x50
    3648:	e8910003 	ldm	r1, {r0, r1}
    364c:	e1a03005 	mov	r3, r5
    3650:	e58dc030 	str	r12, [sp, #48]	; 0x30
    3654:	eb0019a9 	bl	9d00 <__aeabi_dcmpgt>
    3658:	e3500000 	cmp	r0, #0
    365c:	e59dc030 	ldr	r12, [sp, #48]	; 0x30
    3660:	1a0002c7 	bne	4184 <_dtoa_r+0x16a4>
    3664:	e1a02004 	mov	r2, r4
    3668:	e1a03005 	mov	r3, r5
    366c:	e3a00000 	mov	r0, #0
    3670:	e51f15d4 	ldr	r1, [pc, #-1492]	; 30a4 <_dtoa_r+0x5c4>
    3674:	e58dc008 	str	r12, [sp, #8]
    3678:	eb001729 	bl	9324 <__aeabi_dsub>
    367c:	e1a02000 	mov	r2, r0
    3680:	e1a03001 	mov	r3, r1
    3684:	e28d1050 	add	r1, sp, #80	; 0x50
    3688:	e8910003 	ldm	r1, {r0, r1}
    368c:	eb00199b 	bl	9d00 <__aeabi_dcmpgt>
    3690:	e3500000 	cmp	r0, #0
    3694:	e59dc008 	ldr	r12, [sp, #8]
    3698:	1a000250 	bne	3fe0 <_dtoa_r+0x1500>
    369c:	e35a0001 	cmp	r10, #1
    36a0:	dafffde8 	ble	2e48 <_dtoa_r+0x368>
    36a4:	e59dc024 	ldr	r12, [sp, #36]	; 0x24
    36a8:	e59d7030 	ldr	r7, [sp, #48]	; 0x30
    36ac:	e08ca00a 	add	r10, r12, r10
    36b0:	e58d906c 	str	r9, [sp, #108]	; 0x6c
    36b4:	e58d6068 	str	r6, [sp, #104]	; 0x68
    36b8:	e1a0900a 	mov	r9, r10
    36bc:	e58db058 	str	r11, [sp, #88]	; 0x58
    36c0:	e1a0a007 	mov	r10, r7
    36c4:	e28d7050 	add	r7, sp, #80	; 0x50
    36c8:	e89700c0 	ldm	r7, {r6, r7}
    36cc:	ea000007 	b	36f0 <_dtoa_r+0xc10>
    36d0:	eb001713 	bl	9324 <__aeabi_dsub>
    36d4:	e1a02006 	mov	r2, r6
    36d8:	e1a03007 	mov	r3, r7
    36dc:	eb001975 	bl	9cb8 <__aeabi_dcmplt>
    36e0:	e3500000 	cmp	r0, #0
    36e4:	1a00023a 	bne	3fd4 <_dtoa_r+0x14f4>
    36e8:	e15a0009 	cmp	r10, r9
    36ec:	0a000241 	beq	3ff8 <_dtoa_r+0x1518>
    36f0:	e3a02000 	mov	r2, #0
    36f4:	e51f3644 	ldr	r3, [pc, #-1604]	; 30b8 <_dtoa_r+0x5d8>
    36f8:	e1a00006 	mov	r0, r6
    36fc:	e1a01007 	mov	r1, r7
    3700:	eb00180c 	bl	9738 <__aeabi_dmul>
    3704:	e3a02000 	mov	r2, #0
    3708:	e51f3658 	ldr	r3, [pc, #-1624]	; 30b8 <_dtoa_r+0x5d8>
    370c:	e1a06000 	mov	r6, r0
    3710:	e1a07001 	mov	r7, r1
    3714:	e1a00004 	mov	r0, r4
    3718:	e1a01005 	mov	r1, r5
    371c:	eb001805 	bl	9738 <__aeabi_dmul>
    3720:	e1a05001 	mov	r5, r1
    3724:	e1a04000 	mov	r4, r0
    3728:	eb00197a 	bl	9d18 <__aeabi_d2iz>
    372c:	e1a08000 	mov	r8, r0
    3730:	eb0017c9 	bl	965c <__aeabi_i2d>
    3734:	e1a02000 	mov	r2, r0
    3738:	e1a03001 	mov	r3, r1
    373c:	e1a00004 	mov	r0, r4
    3740:	e1a01005 	mov	r1, r5
    3744:	eb0016f6 	bl	9324 <__aeabi_dsub>
    3748:	e2888030 	add	r8, r8, #48	; 0x30
    374c:	e20880ff 	and	r8, r8, #255	; 0xff
    3750:	e4ca8001 	strb	r8, [r10], #1
    3754:	e1a02006 	mov	r2, r6
    3758:	e1a03007 	mov	r3, r7
    375c:	e1a05001 	mov	r5, r1
    3760:	e1a04000 	mov	r4, r0
    3764:	eb001953 	bl	9cb8 <__aeabi_dcmplt>
    3768:	e3500000 	cmp	r0, #0
    376c:	e1a02004 	mov	r2, r4
    3770:	e1a03005 	mov	r3, r5
    3774:	e3a00000 	mov	r0, #0
    3778:	e51f16dc 	ldr	r1, [pc, #-1756]	; 30a4 <_dtoa_r+0x5c4>
    377c:	e1a0b00a 	mov	r11, r10
    3780:	0affffd2 	beq	36d0 <_dtoa_r+0xbf0>
    3784:	e59d4024 	ldr	r4, [sp, #36]	; 0x24
    3788:	e1a0700a 	mov	r7, r10
    378c:	e59db058 	ldr	r11, [sp, #88]	; 0x58
    3790:	e59d6068 	ldr	r6, [sp, #104]	; 0x68
    3794:	e59d9064 	ldr	r9, [sp, #100]	; 0x64
    3798:	e58da024 	str	r10, [sp, #36]	; 0x24
    379c:	eafffee4 	b	3334 <_dtoa_r+0x854>
    37a0:	e3a0c001 	mov	r12, #1
    37a4:	e58dc040 	str	r12, [sp, #64]	; 0x40
    37a8:	e59dc0a4 	ldr	r12, [sp, #164]	; 0xa4
    37ac:	e08cc009 	add	r12, r12, r9
    37b0:	e28c8001 	add	r8, r12, #1
    37b4:	e3580000 	cmp	r8, #0
    37b8:	e58dc044 	str	r12, [sp, #68]	; 0x44
    37bc:	da000191 	ble	3e08 <_dtoa_r+0x1328>
    37c0:	e358000e 	cmp	r8, #14
    37c4:	83a04000 	movhi	r4, #0
    37c8:	92044001 	andls	r4, r4, #1
    37cc:	e58d8038 	str	r8, [sp, #56]	; 0x38
    37d0:	eaffff27 	b	3474 <_dtoa_r+0x994>
    37d4:	e3a0c001 	mov	r12, #1
    37d8:	e58dc040 	str	r12, [sp, #64]	; 0x40
    37dc:	eaffff1b 	b	3450 <_dtoa_r+0x970>
    37e0:	e3a0c000 	mov	r12, #0
    37e4:	e58dc040 	str	r12, [sp, #64]	; 0x40
    37e8:	eaffffee 	b	37a8 <_dtoa_r+0xcc8>
    37ec:	e1a00008 	mov	r0, r8
    37f0:	eb001799 	bl	965c <__aeabi_i2d>
    37f4:	e28d3030 	add	r3, sp, #48	; 0x30
    37f8:	e893000c 	ldm	r3, {r2, r3}
    37fc:	eb0017cd 	bl	9738 <__aeabi_dmul>
    3800:	e3a02000 	mov	r2, #0
    3804:	e51f3750 	ldr	r3, [pc, #-1872]	; 30bc <_dtoa_r+0x5dc>
    3808:	eb0016c6 	bl	9328 <__adddf3>
    380c:	e1a04000 	mov	r4, r0
    3810:	e241550d 	sub	r5, r1, #54525952	; 0x3400000
    3814:	e3a02000 	mov	r2, #0
    3818:	e51f3770 	ldr	r3, [pc, #-1904]	; 30b0 <_dtoa_r+0x5d0>
    381c:	e28d1030 	add	r1, sp, #48	; 0x30
    3820:	e8910003 	ldm	r1, {r0, r1}
    3824:	eb0016be 	bl	9324 <__aeabi_dsub>
    3828:	e1a02004 	mov	r2, r4
    382c:	e1a03005 	mov	r3, r5
    3830:	e1a07000 	mov	r7, r0
    3834:	e1a08001 	mov	r8, r1
    3838:	eb001930 	bl	9d00 <__aeabi_dcmpgt>
    383c:	e250a000 	subs	r10, r0, #0
    3840:	1a000070 	bne	3a08 <_dtoa_r+0xf28>
    3844:	e1a02004 	mov	r2, r4
    3848:	e2853102 	add	r3, r5, #-2147483648	; 0x80000000
    384c:	e1a00007 	mov	r0, r7
    3850:	e1a01008 	mov	r1, r8
    3854:	eb001917 	bl	9cb8 <__aeabi_dcmplt>
    3858:	e3500000 	cmp	r0, #0
    385c:	0afffd79 	beq	2e48 <_dtoa_r+0x368>
    3860:	e1a0700a 	mov	r7, r10
    3864:	e59dc0a4 	ldr	r12, [sp, #164]	; 0xa4
    3868:	e59d4024 	ldr	r4, [sp, #36]	; 0x24
    386c:	e1e0900c 	mvn	r9, r12
    3870:	e3a05000 	mov	r5, #0
    3874:	eafffea3 	b	3308 <_dtoa_r+0x828>
    3878:	e59dc040 	ldr	r12, [sp, #64]	; 0x40
    387c:	e35c0000 	cmp	r12, #0
    3880:	1a0000ee 	bne	3c40 <_dtoa_r+0x1160>
    3884:	e3a04000 	mov	r4, #0
    3888:	e59d5038 	ldr	r5, [sp, #56]	; 0x38
    388c:	e59d8024 	ldr	r8, [sp, #36]	; 0x24
    3890:	ea000005 	b	38ac <_dtoa_r+0xdcc>
    3894:	e1a0100b 	mov	r1, r11
    3898:	e1a00006 	mov	r0, r6
    389c:	e3a0200a 	mov	r2, #10
    38a0:	e3a03000 	mov	r3, #0
    38a4:	eb000850 	bl	59ec <__multadd>
    38a8:	e1a0b000 	mov	r11, r0
    38ac:	e1a01007 	mov	r1, r7
    38b0:	e1a0000b 	mov	r0, r11
    38b4:	ebfffc11 	bl	2900 <quorem>
    38b8:	e2800030 	add	r0, r0, #48	; 0x30
    38bc:	e7c80004 	strb	r0, [r8, r4]
    38c0:	e2844001 	add	r4, r4, #1
    38c4:	e1540005 	cmp	r4, r5
    38c8:	bafffff1 	blt	3894 <_dtoa_r+0xdb4>
    38cc:	e59dc024 	ldr	r12, [sp, #36]	; 0x24
    38d0:	e59d4038 	ldr	r4, [sp, #56]	; 0x38
    38d4:	e1a03000 	mov	r3, r0
    38d8:	e3540001 	cmp	r4, #1
    38dc:	a08cc004 	addge	r12, r12, r4
    38e0:	b28cc001 	addlt	r12, r12, #1
    38e4:	e3a05000 	mov	r5, #0
    38e8:	e1a0100b 	mov	r1, r11
    38ec:	e3a02001 	mov	r2, #1
    38f0:	e1a00006 	mov	r0, r6
    38f4:	e58d300c 	str	r3, [sp, #12]
    38f8:	e58dc008 	str	r12, [sp, #8]
    38fc:	eb0009a5 	bl	5f98 <__lshift>
    3900:	e1a01007 	mov	r1, r7
    3904:	e1a0b000 	mov	r11, r0
    3908:	eb0009e3 	bl	609c <__mcmp>
    390c:	e3500000 	cmp	r0, #0
    3910:	e59d300c 	ldr	r3, [sp, #12]
    3914:	e59dc008 	ldr	r12, [sp, #8]
    3918:	da0001ba 	ble	4008 <_dtoa_r+0x1528>
    391c:	e59d4024 	ldr	r4, [sp, #36]	; 0x24
    3920:	e2844001 	add	r4, r4, #1
    3924:	e55c3001 	ldrb	r3, [r12, #-1]
    3928:	e58d4030 	str	r4, [sp, #48]	; 0x30
    392c:	e1a0100c 	mov	r1, r12
    3930:	e59d0030 	ldr	r0, [sp, #48]	; 0x30
    3934:	ea000001 	b	3940 <_dtoa_r+0xe60>
    3938:	e5513002 	ldrb	r3, [r1, #-2]
    393c:	e1a01002 	mov	r1, r2
    3940:	e3530039 	cmp	r3, #57	; 0x39
    3944:	e2412001 	sub	r2, r1, #1
    3948:	1a0001cd 	bne	4084 <_dtoa_r+0x15a4>
    394c:	e1510000 	cmp	r1, r0
    3950:	1afffff8 	bne	3938 <_dtoa_r+0xe58>
    3954:	e3a03031 	mov	r3, #49	; 0x31
    3958:	e59d4024 	ldr	r4, [sp, #36]	; 0x24
    395c:	e2899001 	add	r9, r9, #1
    3960:	e5c23000 	strb	r3, [r2]
    3964:	e58d1024 	str	r1, [sp, #36]	; 0x24
    3968:	eafffe66 	b	3308 <_dtoa_r+0x828>
    396c:	e3a0301c 	mov	r3, #28
    3970:	eafffe2c 	b	3228 <_dtoa_r+0x748>
    3974:	e28d3010 	add	r3, sp, #16
    3978:	e893000c 	ldm	r3, {r2, r3}
    397c:	e3a08002 	mov	r8, #2
    3980:	e58d2030 	str	r2, [sp, #48]	; 0x30
    3984:	e58d3034 	str	r3, [sp, #52]	; 0x34
    3988:	eafffedf 	b	350c <_dtoa_r+0xa2c>
    398c:	e1a00006 	mov	r0, r6
    3990:	e1a01005 	mov	r1, r5
    3994:	eb00080d 	bl	59d0 <_Bfree>
    3998:	eafffe62 	b	3328 <_dtoa_r+0x848>
    399c:	e2694000 	rsb	r4, r9, #0
    39a0:	e3540000 	cmp	r4, #0
    39a4:	0a000128 	beq	3e4c <_dtoa_r+0x136c>
    39a8:	e51f3904 	ldr	r3, [pc, #-2308]	; 30ac <_dtoa_r+0x5cc>
    39ac:	e204200f 	and	r2, r4, #15
    39b0:	e0833182 	add	r3, r3, r2, lsl #3
    39b4:	e28d1010 	add	r1, sp, #16
    39b8:	e8910003 	ldm	r1, {r0, r1}
    39bc:	e893000c 	ldm	r3, {r2, r3}
    39c0:	eb00175c 	bl	9738 <__aeabi_dmul>
    39c4:	e1b04244 	asrs	r4, r4, #4
    39c8:	e58d0030 	str	r0, [sp, #48]	; 0x30
    39cc:	e58d1034 	str	r1, [sp, #52]	; 0x34
    39d0:	0a0001d2 	beq	4120 <_dtoa_r+0x1640>
    39d4:	e51f5934 	ldr	r5, [pc, #-2356]	; 30a8 <_dtoa_r+0x5c8>
    39d8:	e3a08002 	mov	r8, #2
    39dc:	e3140001 	tst	r4, #1
    39e0:	0a000002 	beq	39f0 <_dtoa_r+0xf10>
    39e4:	e895000c 	ldm	r5, {r2, r3}
    39e8:	eb001752 	bl	9738 <__aeabi_dmul>
    39ec:	e2888001 	add	r8, r8, #1
    39f0:	e1b040c4 	asrs	r4, r4, #1
    39f4:	e2855008 	add	r5, r5, #8
    39f8:	1afffff7 	bne	39dc <_dtoa_r+0xefc>
    39fc:	e58d0030 	str	r0, [sp, #48]	; 0x30
    3a00:	e58d1034 	str	r1, [sp, #52]	; 0x34
    3a04:	eafffed6 	b	3564 <_dtoa_r+0xa84>
    3a08:	e3a07000 	mov	r7, #0
    3a0c:	e1a0a007 	mov	r10, r7
    3a10:	eafffe35 	b	32ec <_dtoa_r+0x80c>
    3a14:	e51f1970 	ldr	r1, [pc, #-2416]	; 30ac <_dtoa_r+0x5cc>
    3a18:	e24ac001 	sub	r12, r10, #1
    3a1c:	e081118c 	add	r1, r1, r12, lsl #3
    3a20:	e1a02004 	mov	r2, r4
    3a24:	e1a03005 	mov	r3, r5
    3a28:	e8910003 	ldm	r1, {r0, r1}
    3a2c:	e58dc050 	str	r12, [sp, #80]	; 0x50
    3a30:	eb001740 	bl	9738 <__aeabi_dmul>
    3a34:	e58d0058 	str	r0, [sp, #88]	; 0x58
    3a38:	e58d105c 	str	r1, [sp, #92]	; 0x5c
    3a3c:	e28d1030 	add	r1, sp, #48	; 0x30
    3a40:	e8910003 	ldm	r1, {r0, r1}
    3a44:	eb0018b3 	bl	9d18 <__aeabi_d2iz>
    3a48:	e1a07000 	mov	r7, r0
    3a4c:	eb001702 	bl	965c <__aeabi_i2d>
    3a50:	e1a02000 	mov	r2, r0
    3a54:	e1a03001 	mov	r3, r1
    3a58:	e28d1030 	add	r1, sp, #48	; 0x30
    3a5c:	e8910003 	ldm	r1, {r0, r1}
    3a60:	eb00162f 	bl	9324 <__aeabi_dsub>
    3a64:	e59dc024 	ldr	r12, [sp, #36]	; 0x24
    3a68:	e2877030 	add	r7, r7, #48	; 0x30
    3a6c:	e4cc7001 	strb	r7, [r12], #1
    3a70:	e35a0001 	cmp	r10, #1
    3a74:	e1a04000 	mov	r4, r0
    3a78:	e1a05001 	mov	r5, r1
    3a7c:	e58dc030 	str	r12, [sp, #48]	; 0x30
    3a80:	0a000019 	beq	3aec <_dtoa_r+0x100c>
    3a84:	e59dc024 	ldr	r12, [sp, #36]	; 0x24
    3a88:	e24c3001 	sub	r3, r12, #1
    3a8c:	e1a0700c 	mov	r7, r12
    3a90:	e083a00a 	add	r10, r3, r10
    3a94:	e3a02000 	mov	r2, #0
    3a98:	e51f39e8 	ldr	r3, [pc, #-2536]	; 30b8 <_dtoa_r+0x5d8>
    3a9c:	eb001725 	bl	9738 <__aeabi_dmul>
    3aa0:	e1a05001 	mov	r5, r1
    3aa4:	e1a04000 	mov	r4, r0
    3aa8:	eb00189a 	bl	9d18 <__aeabi_d2iz>
    3aac:	e1a08000 	mov	r8, r0
    3ab0:	eb0016e9 	bl	965c <__aeabi_i2d>
    3ab4:	e2888030 	add	r8, r8, #48	; 0x30
    3ab8:	e1a02000 	mov	r2, r0
    3abc:	e1a03001 	mov	r3, r1
    3ac0:	e1a00004 	mov	r0, r4
    3ac4:	e1a01005 	mov	r1, r5
    3ac8:	eb001615 	bl	9324 <__aeabi_dsub>
    3acc:	e5e78001 	strb	r8, [r7, #1]!
    3ad0:	e157000a 	cmp	r7, r10
    3ad4:	1affffee 	bne	3a94 <_dtoa_r+0xfb4>
    3ad8:	e1a05001 	mov	r5, r1
    3adc:	e59d2050 	ldr	r2, [sp, #80]	; 0x50
    3ae0:	e59d1030 	ldr	r1, [sp, #48]	; 0x30
    3ae4:	e1a04000 	mov	r4, r0
    3ae8:	e081c002 	add	r12, r1, r2
    3aec:	e3a02000 	mov	r2, #0
    3af0:	e51f3a38 	ldr	r3, [pc, #-2616]	; 30c0 <_dtoa_r+0x5e0>
    3af4:	e28d1058 	add	r1, sp, #88	; 0x58
    3af8:	e8910003 	ldm	r1, {r0, r1}
    3afc:	e58dc008 	str	r12, [sp, #8]
    3b00:	eb001608 	bl	9328 <__adddf3>
    3b04:	e1a02004 	mov	r2, r4
    3b08:	e1a03005 	mov	r3, r5
    3b0c:	eb001869 	bl	9cb8 <__aeabi_dcmplt>
    3b10:	e3500000 	cmp	r0, #0
    3b14:	e59dc008 	ldr	r12, [sp, #8]
    3b18:	0a0000ee 	beq	3ed8 <_dtoa_r+0x13f8>
    3b1c:	e55c8001 	ldrb	r8, [r12, #-1]
    3b20:	e59d4024 	ldr	r4, [sp, #36]	; 0x24
    3b24:	eafffd4d 	b	3060 <_dtoa_r+0x580>
    3b28:	e5973010 	ldr	r3, [r7, #16]
    3b2c:	e0873103 	add	r3, r7, r3, lsl #2
    3b30:	e5930010 	ldr	r0, [r3, #16]
    3b34:	eb00081f 	bl	5bb8 <__hi0bits>
    3b38:	e2600020 	rsb	r0, r0, #32
    3b3c:	eafffdb1 	b	3208 <_dtoa_r+0x728>
    3b40:	e1a0000b 	mov	r0, r11
    3b44:	e1a01007 	mov	r1, r7
    3b48:	eb000953 	bl	609c <__mcmp>
    3b4c:	e3500000 	cmp	r0, #0
    3b50:	aafffdce 	bge	3290 <_dtoa_r+0x7b0>
    3b54:	e1a0100b 	mov	r1, r11
    3b58:	e1a00006 	mov	r0, r6
    3b5c:	e3a0200a 	mov	r2, #10
    3b60:	e3a03000 	mov	r3, #0
    3b64:	eb0007a0 	bl	59ec <__multadd>
    3b68:	e59dc040 	ldr	r12, [sp, #64]	; 0x40
    3b6c:	e35c0000 	cmp	r12, #0
    3b70:	e1a0b000 	mov	r11, r0
    3b74:	e2499001 	sub	r9, r9, #1
    3b78:	1a00016e 	bne	4138 <_dtoa_r+0x1658>
    3b7c:	e59d4044 	ldr	r4, [sp, #68]	; 0x44
    3b80:	e59dc0a0 	ldr	r12, [sp, #160]	; 0xa0
    3b84:	e3540000 	cmp	r4, #0
    3b88:	c3a03000 	movgt	r3, #0
    3b8c:	d3a03001 	movle	r3, #1
    3b90:	e35c0002 	cmp	r12, #2
    3b94:	d3a03000 	movle	r3, #0
    3b98:	e3530000 	cmp	r3, #0
    3b9c:	058d4038 	streq	r4, [sp, #56]	; 0x38
    3ba0:	0affff37 	beq	3884 <_dtoa_r+0xda4>
    3ba4:	e59dc044 	ldr	r12, [sp, #68]	; 0x44
    3ba8:	e58dc038 	str	r12, [sp, #56]	; 0x38
    3bac:	eafffdc0 	b	32b4 <_dtoa_r+0x7d4>
    3bb0:	e59d4038 	ldr	r4, [sp, #56]	; 0x38
    3bb4:	e3540000 	cmp	r4, #0
    3bb8:	1a00011e 	bne	4038 <_dtoa_r+0x1558>
    3bbc:	e3a02000 	mov	r2, #0
    3bc0:	e51f3b18 	ldr	r3, [pc, #-2840]	; 30b0 <_dtoa_r+0x5d0>
    3bc4:	e28d1018 	add	r1, sp, #24
    3bc8:	e8910003 	ldm	r1, {r0, r1}
    3bcc:	eb0016d9 	bl	9738 <__aeabi_dmul>
    3bd0:	e28d3010 	add	r3, sp, #16
    3bd4:	e893000c 	ldm	r3, {r2, r3}
    3bd8:	eb001842 	bl	9ce8 <__aeabi_dcmpge>
    3bdc:	e59d7038 	ldr	r7, [sp, #56]	; 0x38
    3be0:	e3500000 	cmp	r0, #0
    3be4:	e1a0a007 	mov	r10, r7
    3be8:	1affff1d 	bne	3864 <_dtoa_r+0xd84>
    3bec:	eafffdbe 	b	32ec <_dtoa_r+0x80c>
    3bf0:	e59d1010 	ldr	r1, [sp, #16]
    3bf4:	e3510000 	cmp	r1, #0
    3bf8:	1afffd7d 	bne	31f4 <_dtoa_r+0x714>
    3bfc:	e59d3014 	ldr	r3, [sp, #20]
    3c00:	e3c324ff 	bic	r2, r3, #-16777216	; 0xff000000
    3c04:	e3c2260f 	bic	r2, r2, #15728640	; 0xf00000
    3c08:	e3520000 	cmp	r2, #0
    3c0c:	1a000121 	bne	4098 <_dtoa_r+0x15b8>
    3c10:	e51f5b64 	ldr	r5, [pc, #-2916]	; 30b4 <_dtoa_r+0x5d4>
    3c14:	e0035005 	and	r5, r3, r5
    3c18:	e3550000 	cmp	r5, #0
    3c1c:	0afffd75 	beq	31f8 <_dtoa_r+0x718>
    3c20:	e59dc02c 	ldr	r12, [sp, #44]	; 0x2c
    3c24:	e28cc001 	add	r12, r12, #1
    3c28:	e58dc02c 	str	r12, [sp, #44]	; 0x2c
    3c2c:	e59dc028 	ldr	r12, [sp, #40]	; 0x28
    3c30:	e28cc001 	add	r12, r12, #1
    3c34:	e58dc028 	str	r12, [sp, #40]	; 0x28
    3c38:	e3a05001 	mov	r5, #1
    3c3c:	eafffd6d 	b	31f8 <_dtoa_r+0x718>
    3c40:	e3540000 	cmp	r4, #0
    3c44:	da000004 	ble	3c5c <_dtoa_r+0x117c>
    3c48:	e1a0100a 	mov	r1, r10
    3c4c:	e1a00006 	mov	r0, r6
    3c50:	e1a02004 	mov	r2, r4
    3c54:	eb0008cf 	bl	5f98 <__lshift>
    3c58:	e1a0a000 	mov	r10, r0
    3c5c:	e3550000 	cmp	r5, #0
    3c60:	01a0800a 	moveq	r8, r10
    3c64:	1a0000f6 	bne	4044 <_dtoa_r+0x1564>
    3c68:	e59d1038 	ldr	r1, [sp, #56]	; 0x38
    3c6c:	e59dc024 	ldr	r12, [sp, #36]	; 0x24
    3c70:	e08cc001 	add	r12, r12, r1
    3c74:	e59d4024 	ldr	r4, [sp, #36]	; 0x24
    3c78:	e58dc02c 	str	r12, [sp, #44]	; 0x2c
    3c7c:	e59dc010 	ldr	r12, [sp, #16]
    3c80:	e2844001 	add	r4, r4, #1
    3c84:	e20cc001 	and	r12, r12, #1
    3c88:	e58d4030 	str	r4, [sp, #48]	; 0x30
    3c8c:	e1a0500a 	mov	r5, r10
    3c90:	e58dc020 	str	r12, [sp, #32]
    3c94:	e58d9038 	str	r9, [sp, #56]	; 0x38
    3c98:	ea00002e 	b	3d58 <_dtoa_r+0x1278>
    3c9c:	e1a00006 	mov	r0, r6
    3ca0:	e1a01003 	mov	r1, r3
    3ca4:	e58d200c 	str	r2, [sp, #12]
    3ca8:	eb000748 	bl	59d0 <_Bfree>
    3cac:	e59d200c 	ldr	r2, [sp, #12]
    3cb0:	e59dc0a0 	ldr	r12, [sp, #160]	; 0xa0
    3cb4:	e192c00c 	orrs	r12, r2, r12
    3cb8:	1a000002 	bne	3cc8 <_dtoa_r+0x11e8>
    3cbc:	e59dc020 	ldr	r12, [sp, #32]
    3cc0:	e35c0000 	cmp	r12, #0
    3cc4:	0a000109 	beq	40f0 <_dtoa_r+0x1610>
    3cc8:	e35a0000 	cmp	r10, #0
    3ccc:	ba0000a6 	blt	3f6c <_dtoa_r+0x148c>
    3cd0:	e59dc0a0 	ldr	r12, [sp, #160]	; 0xa0
    3cd4:	e19ac00c 	orrs	r12, r10, r12
    3cd8:	1a000002 	bne	3ce8 <_dtoa_r+0x1208>
    3cdc:	e59dc020 	ldr	r12, [sp, #32]
    3ce0:	e35c0000 	cmp	r12, #0
    3ce4:	0a0000a0 	beq	3f6c <_dtoa_r+0x148c>
    3ce8:	e3520000 	cmp	r2, #0
    3cec:	ca0000eb 	bgt	40a0 <_dtoa_r+0x15c0>
    3cf0:	e59dc02c 	ldr	r12, [sp, #44]	; 0x2c
    3cf4:	e154000c 	cmp	r4, r12
    3cf8:	e5449001 	strb	r9, [r4, #-1]
    3cfc:	e1a0c004 	mov	r12, r4
    3d00:	0a0000f1 	beq	40cc <_dtoa_r+0x15ec>
    3d04:	e1a0100b 	mov	r1, r11
    3d08:	e1a00006 	mov	r0, r6
    3d0c:	e3a0200a 	mov	r2, #10
    3d10:	e3a03000 	mov	r3, #0
    3d14:	eb000734 	bl	59ec <__multadd>
    3d18:	e1550008 	cmp	r5, r8
    3d1c:	e1a0b000 	mov	r11, r0
    3d20:	0a000028 	beq	3dc8 <_dtoa_r+0x12e8>
    3d24:	e1a01005 	mov	r1, r5
    3d28:	e3a0200a 	mov	r2, #10
    3d2c:	e3a03000 	mov	r3, #0
    3d30:	e1a00006 	mov	r0, r6
    3d34:	eb00072c 	bl	59ec <__multadd>
    3d38:	e1a01008 	mov	r1, r8
    3d3c:	e1a05000 	mov	r5, r0
    3d40:	e3a0200a 	mov	r2, #10
    3d44:	e1a00006 	mov	r0, r6
    3d48:	e3a03000 	mov	r3, #0
    3d4c:	eb000726 	bl	59ec <__multadd>
    3d50:	e1a08000 	mov	r8, r0
    3d54:	e2844001 	add	r4, r4, #1
    3d58:	e1a01007 	mov	r1, r7
    3d5c:	e1a0000b 	mov	r0, r11
    3d60:	ebfffae6 	bl	2900 <quorem>
    3d64:	e1a01005 	mov	r1, r5
    3d68:	e58d0010 	str	r0, [sp, #16]
    3d6c:	e1a0000b 	mov	r0, r11
    3d70:	eb0008c9 	bl	609c <__mcmp>
    3d74:	e1a02008 	mov	r2, r8
    3d78:	e1a0a000 	mov	r10, r0
    3d7c:	e1a01007 	mov	r1, r7
    3d80:	e1a00006 	mov	r0, r6
    3d84:	eb0008dd 	bl	6100 <__mdiff>
    3d88:	e244c001 	sub	r12, r4, #1
    3d8c:	e590200c 	ldr	r2, [r0, #12]
    3d90:	e58dc028 	str	r12, [sp, #40]	; 0x28
    3d94:	e59dc010 	ldr	r12, [sp, #16]
    3d98:	e3520000 	cmp	r2, #0
    3d9c:	e1a03000 	mov	r3, r0
    3da0:	e28c9030 	add	r9, r12, #48	; 0x30
    3da4:	13a02001 	movne	r2, #1
    3da8:	1affffbb 	bne	3c9c <_dtoa_r+0x11bc>
    3dac:	e1a01003 	mov	r1, r3
    3db0:	e1a0000b 	mov	r0, r11
    3db4:	e58d300c 	str	r3, [sp, #12]
    3db8:	eb0008b7 	bl	609c <__mcmp>
    3dbc:	e59d300c 	ldr	r3, [sp, #12]
    3dc0:	e1a02000 	mov	r2, r0
    3dc4:	eaffffb4 	b	3c9c <_dtoa_r+0x11bc>
    3dc8:	e1a01005 	mov	r1, r5
    3dcc:	e1a00006 	mov	r0, r6
    3dd0:	e3a0200a 	mov	r2, #10
    3dd4:	e3a03000 	mov	r3, #0
    3dd8:	eb000703 	bl	59ec <__multadd>
    3ddc:	e1a05000 	mov	r5, r0
    3de0:	e1a08000 	mov	r8, r0
    3de4:	eaffffda 	b	3d54 <_dtoa_r+0x1274>
    3de8:	e3a03001 	mov	r3, #1
    3dec:	e58d3044 	str	r3, [sp, #68]	; 0x44
    3df0:	e58d3038 	str	r3, [sp, #56]	; 0x38
    3df4:	e58d30a4 	str	r3, [sp, #164]	; 0xa4
    3df8:	e3a01000 	mov	r1, #0
    3dfc:	e5861044 	str	r1, [r6, #68]	; 0x44
    3e00:	e0034004 	and	r4, r3, r4
    3e04:	eafffda7 	b	34a8 <_dtoa_r+0x9c8>
    3e08:	e358000e 	cmp	r8, #14
    3e0c:	83a03000 	movhi	r3, #0
    3e10:	93a03001 	movls	r3, #1
    3e14:	e58d8038 	str	r8, [sp, #56]	; 0x38
    3e18:	eafffff6 	b	3df8 <_dtoa_r+0x1318>
    3e1c:	e1a0100b 	mov	r1, r11
    3e20:	e1a00006 	mov	r0, r6
    3e24:	e59d203c 	ldr	r2, [sp, #60]	; 0x3c
    3e28:	eb00081d 	bl	5ea4 <__pow5mult>
    3e2c:	e1a0b000 	mov	r11, r0
    3e30:	eafffce0 	b	31b8 <_dtoa_r+0x6d8>
    3e34:	e1a0c006 	mov	r12, r6
    3e38:	e59d9020 	ldr	r9, [sp, #32]
    3e3c:	e59d6028 	ldr	r6, [sp, #40]	; 0x28
    3e40:	e59d4024 	ldr	r4, [sp, #36]	; 0x24
    3e44:	e58dc024 	str	r12, [sp, #36]	; 0x24
    3e48:	eafffd39 	b	3334 <_dtoa_r+0x854>
    3e4c:	e28d4010 	add	r4, sp, #16
    3e50:	e8940018 	ldm	r4, {r3, r4}
    3e54:	e3a08002 	mov	r8, #2
    3e58:	e58d3030 	str	r3, [sp, #48]	; 0x30
    3e5c:	e58d4034 	str	r4, [sp, #52]	; 0x34
    3e60:	eafffdbf 	b	3564 <_dtoa_r+0xa84>
    3e64:	e59dc038 	ldr	r12, [sp, #56]	; 0x38
    3e68:	e35c0000 	cmp	r12, #0
    3e6c:	0afffe5e 	beq	37ec <_dtoa_r+0xd0c>
    3e70:	e59d4044 	ldr	r4, [sp, #68]	; 0x44
    3e74:	e3540000 	cmp	r4, #0
    3e78:	dafffbf2 	ble	2e48 <_dtoa_r+0x368>
    3e7c:	e3a02000 	mov	r2, #0
    3e80:	e51f3dd0 	ldr	r3, [pc, #-3536]	; 30b8 <_dtoa_r+0x5d8>
    3e84:	e28d1030 	add	r1, sp, #48	; 0x30
    3e88:	e8910003 	ldm	r1, {r0, r1}
    3e8c:	eb001629 	bl	9738 <__aeabi_dmul>
    3e90:	e58d0030 	str	r0, [sp, #48]	; 0x30
    3e94:	e58d1034 	str	r1, [sp, #52]	; 0x34
    3e98:	e2880001 	add	r0, r8, #1
    3e9c:	eb0015ee 	bl	965c <__aeabi_i2d>
    3ea0:	e1a02000 	mov	r2, r0
    3ea4:	e1a03001 	mov	r3, r1
    3ea8:	e28d1030 	add	r1, sp, #48	; 0x30
    3eac:	e8910003 	ldm	r1, {r0, r1}
    3eb0:	eb001620 	bl	9738 <__aeabi_dmul>
    3eb4:	e3a02000 	mov	r2, #0
    3eb8:	e51f3e04 	ldr	r3, [pc, #-3588]	; 30bc <_dtoa_r+0x5dc>
    3ebc:	eb001519 	bl	9328 <__adddf3>
    3ec0:	e249c001 	sub	r12, r9, #1
    3ec4:	e1a04000 	mov	r4, r0
    3ec8:	e58dc064 	str	r12, [sp, #100]	; 0x64
    3ecc:	e241550d 	sub	r5, r1, #54525952	; 0x3400000
    3ed0:	e59da044 	ldr	r10, [sp, #68]	; 0x44
    3ed4:	eafffdbb 	b	35c8 <_dtoa_r+0xae8>
    3ed8:	e28d3058 	add	r3, sp, #88	; 0x58
    3edc:	e893000c 	ldm	r3, {r2, r3}
    3ee0:	e3a00000 	mov	r0, #0
    3ee4:	e51f1e2c 	ldr	r1, [pc, #-3628]	; 30c0 <_dtoa_r+0x5e0>
    3ee8:	e58dc008 	str	r12, [sp, #8]
    3eec:	eb00150c 	bl	9324 <__aeabi_dsub>
    3ef0:	e1a02004 	mov	r2, r4
    3ef4:	e1a03005 	mov	r3, r5
    3ef8:	eb001780 	bl	9d00 <__aeabi_dcmpgt>
    3efc:	e3500000 	cmp	r0, #0
    3f00:	e59dc008 	ldr	r12, [sp, #8]
    3f04:	0afffbcf 	beq	2e48 <_dtoa_r+0x368>
    3f08:	e1a0900c 	mov	r9, r12
    3f0c:	e5592001 	ldrb	r2, [r9, #-1]
    3f10:	e3520030 	cmp	r2, #48	; 0x30
    3f14:	e1a03009 	mov	r3, r9
    3f18:	e2499001 	sub	r9, r9, #1
    3f1c:	0afffffa 	beq	3f0c <_dtoa_r+0x142c>
    3f20:	e59d4024 	ldr	r4, [sp, #36]	; 0x24
    3f24:	e59d9064 	ldr	r9, [sp, #100]	; 0x64
    3f28:	e58d3024 	str	r3, [sp, #36]	; 0x24
    3f2c:	eafffd00 	b	3334 <_dtoa_r+0x854>
    3f30:	e1a0100b 	mov	r1, r11
    3f34:	e1a00006 	mov	r0, r6
    3f38:	eb0007d9 	bl	5ea4 <__pow5mult>
    3f3c:	e1a0b000 	mov	r11, r0
    3f40:	eafffc9c 	b	31b8 <_dtoa_r+0x6d8>
    3f44:	e59d4060 	ldr	r4, [sp, #96]	; 0x60
    3f48:	e3540000 	cmp	r4, #0
    3f4c:	059d3070 	ldreq	r3, [sp, #112]	; 0x70
    3f50:	12833e43 	addne	r3, r3, #1072	; 0x430
    3f54:	12833003 	addne	r3, r3, #3
    3f58:	159d503c 	ldrne	r5, [sp, #60]	; 0x3c
    3f5c:	059d503c 	ldreq	r5, [sp, #60]	; 0x3c
    3f60:	02633036 	rsbeq	r3, r3, #54	; 0x36
    3f64:	e59d402c 	ldr	r4, [sp, #44]	; 0x2c
    3f68:	eafffd2b 	b	341c <_dtoa_r+0x93c>
    3f6c:	e1a03009 	mov	r3, r9
    3f70:	e3520000 	cmp	r2, #0
    3f74:	e59d9038 	ldr	r9, [sp, #56]	; 0x38
    3f78:	e1a04003 	mov	r4, r3
    3f7c:	da00000e 	ble	3fbc <_dtoa_r+0x14dc>
    3f80:	e1a0100b 	mov	r1, r11
    3f84:	e3a02001 	mov	r2, #1
    3f88:	e1a00006 	mov	r0, r6
    3f8c:	e58d300c 	str	r3, [sp, #12]
    3f90:	eb000800 	bl	5f98 <__lshift>
    3f94:	e1a01007 	mov	r1, r7
    3f98:	e1a0b000 	mov	r11, r0
    3f9c:	eb00083e 	bl	609c <__mcmp>
    3fa0:	e3500000 	cmp	r0, #0
    3fa4:	e59d300c 	ldr	r3, [sp, #12]
    3fa8:	da000058 	ble	4110 <_dtoa_r+0x1630>
    3fac:	e3540039 	cmp	r4, #57	; 0x39
    3fb0:	e59d4010 	ldr	r4, [sp, #16]
    3fb4:	e2843031 	add	r3, r4, #49	; 0x31
    3fb8:	0a000047 	beq	40dc <_dtoa_r+0x15fc>
    3fbc:	e59d2028 	ldr	r2, [sp, #40]	; 0x28
    3fc0:	e4c23001 	strb	r3, [r2], #1
    3fc4:	e59d4024 	ldr	r4, [sp, #36]	; 0x24
    3fc8:	e1a0a008 	mov	r10, r8
    3fcc:	e58d2024 	str	r2, [sp, #36]	; 0x24
    3fd0:	eafffccc 	b	3308 <_dtoa_r+0x828>
    3fd4:	e1a0c00b 	mov	r12, r11
    3fd8:	e59d6068 	ldr	r6, [sp, #104]	; 0x68
    3fdc:	e59db058 	ldr	r11, [sp, #88]	; 0x58
    3fe0:	e59d4024 	ldr	r4, [sp, #36]	; 0x24
    3fe4:	eafffc1d 	b	3060 <_dtoa_r+0x580>
    3fe8:	e58d9024 	str	r9, [sp, #36]	; 0x24
    3fec:	e2888001 	add	r8, r8, #1
    3ff0:	e59d9064 	ldr	r9, [sp, #100]	; 0x64
    3ff4:	eafffc40 	b	30fc <_dtoa_r+0x61c>
    3ff8:	e59d906c 	ldr	r9, [sp, #108]	; 0x6c
    3ffc:	e59db058 	ldr	r11, [sp, #88]	; 0x58
    4000:	e59d6068 	ldr	r6, [sp, #104]	; 0x68
    4004:	eafffb8f 	b	2e48 <_dtoa_r+0x368>
    4008:	1a000001 	bne	4014 <_dtoa_r+0x1534>
    400c:	e3130001 	tst	r3, #1
    4010:	1afffe41 	bne	391c <_dtoa_r+0xe3c>
    4014:	e1a0100c 	mov	r1, r12
    4018:	e5512001 	ldrb	r2, [r1, #-1]
    401c:	e3520030 	cmp	r2, #48	; 0x30
    4020:	e1a03001 	mov	r3, r1
    4024:	e2411001 	sub	r1, r1, #1
    4028:	0afffffa 	beq	4018 <_dtoa_r+0x1538>
    402c:	e59d4024 	ldr	r4, [sp, #36]	; 0x24
    4030:	e58d3024 	str	r3, [sp, #36]	; 0x24
    4034:	eafffcb3 	b	3308 <_dtoa_r+0x828>
    4038:	e3a07000 	mov	r7, #0
    403c:	e1a0a007 	mov	r10, r7
    4040:	eafffe07 	b	3864 <_dtoa_r+0xd84>
    4044:	e59a1004 	ldr	r1, [r10, #4]
    4048:	e1a00006 	mov	r0, r6
    404c:	eb00063c 	bl	5944 <_Balloc>
    4050:	e59a2010 	ldr	r2, [r10, #16]
    4054:	e2822002 	add	r2, r2, #2
    4058:	e1a04000 	mov	r4, r0
    405c:	e1a02102 	lsl	r2, r2, #2
    4060:	e28a100c 	add	r1, r10, #12
    4064:	e280000c 	add	r0, r0, #12
    4068:	eb000563 	bl	55fc <memcpy>
    406c:	e1a00006 	mov	r0, r6
    4070:	e1a01004 	mov	r1, r4
    4074:	e3a02001 	mov	r2, #1
    4078:	eb0007c6 	bl	5f98 <__lshift>
    407c:	e1a08000 	mov	r8, r0
    4080:	eafffef8 	b	3c68 <_dtoa_r+0x1188>
    4084:	e2833001 	add	r3, r3, #1
    4088:	e59d4024 	ldr	r4, [sp, #36]	; 0x24
    408c:	e5c23000 	strb	r3, [r2]
    4090:	e58d1024 	str	r1, [sp, #36]	; 0x24
    4094:	eafffc9b 	b	3308 <_dtoa_r+0x828>
    4098:	e59d5010 	ldr	r5, [sp, #16]
    409c:	eafffc55 	b	31f8 <_dtoa_r+0x718>
    40a0:	e1a03009 	mov	r3, r9
    40a4:	e3530039 	cmp	r3, #57	; 0x39
    40a8:	e59d9038 	ldr	r9, [sp, #56]	; 0x38
    40ac:	0a00000a 	beq	40dc <_dtoa_r+0x15fc>
    40b0:	e59d2028 	ldr	r2, [sp, #40]	; 0x28
    40b4:	e2833001 	add	r3, r3, #1
    40b8:	e4c23001 	strb	r3, [r2], #1
    40bc:	e59d4024 	ldr	r4, [sp, #36]	; 0x24
    40c0:	e1a0a008 	mov	r10, r8
    40c4:	e58d2024 	str	r2, [sp, #36]	; 0x24
    40c8:	eafffc8e 	b	3308 <_dtoa_r+0x828>
    40cc:	e1a03009 	mov	r3, r9
    40d0:	e1a0a008 	mov	r10, r8
    40d4:	e59d9038 	ldr	r9, [sp, #56]	; 0x38
    40d8:	eafffe02 	b	38e8 <_dtoa_r+0xe08>
    40dc:	e59dc028 	ldr	r12, [sp, #40]	; 0x28
    40e0:	e3a03039 	mov	r3, #57	; 0x39
    40e4:	e4cc3001 	strb	r3, [r12], #1
    40e8:	e1a0a008 	mov	r10, r8
    40ec:	eafffe0e 	b	392c <_dtoa_r+0xe4c>
    40f0:	e1a03009 	mov	r3, r9
    40f4:	e3530039 	cmp	r3, #57	; 0x39
    40f8:	e59d9038 	ldr	r9, [sp, #56]	; 0x38
    40fc:	0afffff6 	beq	40dc <_dtoa_r+0x15fc>
    4100:	e35a0000 	cmp	r10, #0
    4104:	c59d4010 	ldrgt	r4, [sp, #16]
    4108:	c2843031 	addgt	r3, r4, #49	; 0x31
    410c:	eaffffaa 	b	3fbc <_dtoa_r+0x14dc>
    4110:	1affffa9 	bne	3fbc <_dtoa_r+0x14dc>
    4114:	e3130001 	tst	r3, #1
    4118:	0affffa7 	beq	3fbc <_dtoa_r+0x14dc>
    411c:	eaffffa2 	b	3fac <_dtoa_r+0x14cc>
    4120:	e3a08002 	mov	r8, #2
    4124:	eafffd0e 	b	3564 <_dtoa_r+0xa84>
    4128:	e59dc030 	ldr	r12, [sp, #48]	; 0x30
    412c:	e59d4024 	ldr	r4, [sp, #36]	; 0x24
    4130:	e58dc024 	str	r12, [sp, #36]	; 0x24
    4134:	eafffc7e 	b	3334 <_dtoa_r+0x854>
    4138:	e3a03000 	mov	r3, #0
    413c:	e1a0100a 	mov	r1, r10
    4140:	e1a00006 	mov	r0, r6
    4144:	e3a0200a 	mov	r2, #10
    4148:	eb000627 	bl	59ec <__multadd>
    414c:	e59dc044 	ldr	r12, [sp, #68]	; 0x44
    4150:	e59d10a0 	ldr	r1, [sp, #160]	; 0xa0
    4154:	e35c0000 	cmp	r12, #0
    4158:	c3a03000 	movgt	r3, #0
    415c:	d3a03001 	movle	r3, #1
    4160:	e3510002 	cmp	r1, #2
    4164:	d3a03000 	movle	r3, #0
    4168:	e3530000 	cmp	r3, #0
    416c:	e1a0a000 	mov	r10, r0
    4170:	058dc038 	streq	r12, [sp, #56]	; 0x38
    4174:	0afffeb1 	beq	3c40 <_dtoa_r+0x1160>
    4178:	e59d4044 	ldr	r4, [sp, #68]	; 0x44
    417c:	e58d4038 	str	r4, [sp, #56]	; 0x38
    4180:	eafffc4b 	b	32b4 <_dtoa_r+0x7d4>
    4184:	e59dc030 	ldr	r12, [sp, #48]	; 0x30
    4188:	e59d4024 	ldr	r4, [sp, #36]	; 0x24
    418c:	e59d9064 	ldr	r9, [sp, #100]	; 0x64
    4190:	e58dc024 	str	r12, [sp, #36]	; 0x24
    4194:	eafffc66 	b	3334 <_dtoa_r+0x854>
    4198:	1263303c 	rsbne	r3, r3, #60	; 0x3c
    419c:	0afffc28 	beq	3244 <_dtoa_r+0x764>
    41a0:	eafffc20 	b	3228 <_dtoa_r+0x748>
    41a4:	e1a00000 	nop			; (mov r0, r0)

000041a8 <_fflush_r>:
    41a8:	e92d40f8 	push	{r3, r4, r5, r6, r7, lr}
    41ac:	e2507000 	subs	r7, r0, #0
    41b0:	e1a04001 	mov	r4, r1
    41b4:	0a000002 	beq	41c4 <_fflush_r+0x1c>
    41b8:	e5973038 	ldr	r3, [r7, #56]	; 0x38
    41bc:	e3530000 	cmp	r3, #0
    41c0:	0a000059 	beq	432c <_fflush_r+0x184>
    41c4:	e1d420bc 	ldrh	r2, [r4, #12]
    41c8:	e3520000 	cmp	r2, #0
    41cc:	0a000023 	beq	4260 <_fflush_r+0xb8>
    41d0:	e3120008 	tst	r2, #8
    41d4:	0a000024 	beq	426c <_fflush_r+0xc4>
    41d8:	e5946010 	ldr	r6, [r4, #16]
    41dc:	e3560000 	cmp	r6, #0
    41e0:	0a00001e 	beq	4260 <_fflush_r+0xb8>
    41e4:	e5945000 	ldr	r5, [r4]
    41e8:	e3120003 	tst	r2, #3
    41ec:	05943014 	ldreq	r3, [r4, #20]
    41f0:	e0665005 	rsb	r5, r6, r5
    41f4:	13a03000 	movne	r3, #0
    41f8:	e3550000 	cmp	r5, #0
    41fc:	e5846000 	str	r6, [r4]
    4200:	e5843008 	str	r3, [r4, #8]
    4204:	ca000003 	bgt	4218 <_fflush_r+0x70>
    4208:	ea000014 	b	4260 <_fflush_r+0xb8>
    420c:	e3550000 	cmp	r5, #0
    4210:	e0866000 	add	r6, r6, r0
    4214:	da000011 	ble	4260 <_fflush_r+0xb8>
    4218:	e1a03005 	mov	r3, r5
    421c:	e1a02006 	mov	r2, r6
    4220:	e1a00007 	mov	r0, r7
    4224:	e594101c 	ldr	r1, [r4, #28]
    4228:	e594c024 	ldr	r12, [r4, #36]	; 0x24
    422c:	e1a0e00f 	mov	lr, pc
    4230:	e12fff1c 	bx	r12
    4234:	e3500000 	cmp	r0, #0
    4238:	e0605005 	rsb	r5, r0, r5
    423c:	cafffff2 	bgt	420c <_fflush_r+0x64>
    4240:	e1d430bc 	ldrh	r3, [r4, #12]
    4244:	e3833040 	orr	r3, r3, #64	; 0x40
    4248:	e1c430bc 	strh	r3, [r4, #12]
    424c:	e3e00000 	mvn	r0, #0
    4250:	ea000003 	b	4264 <_fflush_r+0xbc>
    4254:	e594103c 	ldr	r1, [r4, #60]	; 0x3c
    4258:	e3510000 	cmp	r1, #0
    425c:	ca000007 	bgt	4280 <_fflush_r+0xd8>
    4260:	e3a00000 	mov	r0, #0
    4264:	e8bd40f8 	pop	{r3, r4, r5, r6, r7, lr}
    4268:	e12fff1e 	bx	lr
    426c:	e5941004 	ldr	r1, [r4, #4]
    4270:	e3823b02 	orr	r3, r2, #2048	; 0x800
    4274:	e3510000 	cmp	r1, #0
    4278:	e1c430bc 	strh	r3, [r4, #12]
    427c:	dafffff4 	ble	4254 <_fflush_r+0xac>
    4280:	e594c028 	ldr	r12, [r4, #40]	; 0x28
    4284:	e35c0000 	cmp	r12, #0
    4288:	0afffff4 	beq	4260 <_fflush_r+0xb8>
    428c:	e3a01000 	mov	r1, #0
    4290:	e2126a01 	ands	r6, r2, #4096	; 0x1000
    4294:	e5975000 	ldr	r5, [r7]
    4298:	e5871000 	str	r1, [r7]
    429c:	0a000024 	beq	4334 <_fflush_r+0x18c>
    42a0:	e5942050 	ldr	r2, [r4, #80]	; 0x50
    42a4:	e3130004 	tst	r3, #4
    42a8:	0a000005 	beq	42c4 <_fflush_r+0x11c>
    42ac:	e5941030 	ldr	r1, [r4, #48]	; 0x30
    42b0:	e5943004 	ldr	r3, [r4, #4]
    42b4:	e3510000 	cmp	r1, #0
    42b8:	e0632002 	rsb	r2, r3, r2
    42bc:	1594303c 	ldrne	r3, [r4, #60]	; 0x3c
    42c0:	10632002 	rsbne	r2, r3, r2
    42c4:	e1a00007 	mov	r0, r7
    42c8:	e594101c 	ldr	r1, [r4, #28]
    42cc:	e3a03000 	mov	r3, #0
    42d0:	e1a0e00f 	mov	lr, pc
    42d4:	e12fff1c 	bx	r12
    42d8:	e3700001 	cmn	r0, #1
    42dc:	0a000020 	beq	4364 <_fflush_r+0x1bc>
    42e0:	e1d430bc 	ldrh	r3, [r4, #12]
    42e4:	e5942010 	ldr	r2, [r4, #16]
    42e8:	e3c31b02 	bic	r1, r3, #2048	; 0x800
    42ec:	e3130a01 	tst	r3, #4096	; 0x1000
    42f0:	e3a03000 	mov	r3, #0
    42f4:	e1c410bc 	strh	r1, [r4, #12]
    42f8:	e884000c 	stm	r4, {r2, r3}
    42fc:	1a000028 	bne	43a4 <_fflush_r+0x1fc>
    4300:	e5941030 	ldr	r1, [r4, #48]	; 0x30
    4304:	e3510000 	cmp	r1, #0
    4308:	e5875000 	str	r5, [r7]
    430c:	0affffd3 	beq	4260 <_fflush_r+0xb8>
    4310:	e2843040 	add	r3, r4, #64	; 0x40
    4314:	e1510003 	cmp	r1, r3
    4318:	11a00007 	movne	r0, r7
    431c:	1b00013d 	blne	4818 <_free_r>
    4320:	e3a00000 	mov	r0, #0
    4324:	e5840030 	str	r0, [r4, #48]	; 0x30
    4328:	eaffffcd 	b	4264 <_fflush_r+0xbc>
    432c:	eb000077 	bl	4510 <__sinit>
    4330:	eaffffa3 	b	41c4 <_fflush_r+0x1c>
    4334:	e1a02006 	mov	r2, r6
    4338:	e1a00007 	mov	r0, r7
    433c:	e594101c 	ldr	r1, [r4, #28]
    4340:	e3a03001 	mov	r3, #1
    4344:	e1a0e00f 	mov	lr, pc
    4348:	e12fff1c 	bx	r12
    434c:	e3700001 	cmn	r0, #1
    4350:	e1a02000 	mov	r2, r0
    4354:	0a000014 	beq	43ac <_fflush_r+0x204>
    4358:	e1d430bc 	ldrh	r3, [r4, #12]
    435c:	e594c028 	ldr	r12, [r4, #40]	; 0x28
    4360:	eaffffcf 	b	42a4 <_fflush_r+0xfc>
    4364:	e597c000 	ldr	r12, [r7]
    4368:	e35c001d 	cmp	r12, #29
    436c:	8affffb3 	bhi	4240 <_fflush_r+0x98>
    4370:	e59f3058 	ldr	r3, [pc, #88]	; 43d0 <_fflush_r+0x228>
    4374:	e1b03c13 	lsls	r3, r3, r12
    4378:	5affffb0 	bpl	4240 <_fflush_r+0x98>
    437c:	e1d430bc 	ldrh	r3, [r4, #12]
    4380:	e5942010 	ldr	r2, [r4, #16]
    4384:	e3c31b02 	bic	r1, r3, #2048	; 0x800
    4388:	e3130a01 	tst	r3, #4096	; 0x1000
    438c:	e3a03000 	mov	r3, #0
    4390:	e1c410bc 	strh	r1, [r4, #12]
    4394:	e884000c 	stm	r4, {r2, r3}
    4398:	0affffd8 	beq	4300 <_fflush_r+0x158>
    439c:	e35c0000 	cmp	r12, #0
    43a0:	1affffd6 	bne	4300 <_fflush_r+0x158>
    43a4:	e5840050 	str	r0, [r4, #80]	; 0x50
    43a8:	eaffffd4 	b	4300 <_fflush_r+0x158>
    43ac:	e5973000 	ldr	r3, [r7]
    43b0:	e3530000 	cmp	r3, #0
    43b4:	0affffe7 	beq	4358 <_fflush_r+0x1b0>
    43b8:	e353001d 	cmp	r3, #29
    43bc:	13530016 	cmpne	r3, #22
    43c0:	05875000 	streq	r5, [r7]
    43c4:	01a00006 	moveq	r0, r6
    43c8:	0affffa5 	beq	4264 <_fflush_r+0xbc>
    43cc:	eaffff9b 	b	4240 <_fflush_r+0x98>
    43d0:	80000204 	.word	0x80000204

000043d4 <fflush>:
    43d4:	e2501000 	subs	r1, r0, #0
    43d8:	e92d4008 	push	{r3, lr}
    43dc:	0a000003 	beq	43f0 <fflush+0x1c>
    43e0:	e59f3020 	ldr	r3, [pc, #32]	; 4408 <fflush+0x34>
    43e4:	e5930000 	ldr	r0, [r3]
    43e8:	e8bd4008 	pop	{r3, lr}
    43ec:	eaffff6d 	b	41a8 <_fflush_r>
    43f0:	e59f3014 	ldr	r3, [pc, #20]	; 440c <fflush+0x38>
    43f4:	e59f1014 	ldr	r1, [pc, #20]	; 4410 <fflush+0x3c>
    43f8:	e5930000 	ldr	r0, [r3]
    43fc:	eb0001c2 	bl	4b0c <_fwalk_reent>
    4400:	e8bd4008 	pop	{r3, lr}
    4404:	e12fff1e 	bx	lr
    4408:	0000b170 	.word	0x0000b170
    440c:	0000af40 	.word	0x0000af40
    4410:	000041a8 	.word	0x000041a8

00004414 <__fp_lock>:
    4414:	e3a00000 	mov	r0, #0
    4418:	e12fff1e 	bx	lr

0000441c <__fp_unlock>:
    441c:	e3a00000 	mov	r0, #0
    4420:	e12fff1e 	bx	lr

00004424 <_cleanup_r>:
    4424:	e92d4008 	push	{r3, lr}
    4428:	e59f1008 	ldr	r1, [pc, #8]	; 4438 <_cleanup_r+0x14>
    442c:	eb000194 	bl	4a84 <_fwalk>
    4430:	e8bd4008 	pop	{r3, lr}
    4434:	e12fff1e 	bx	lr
    4438:	00007f4c 	.word	0x00007f4c

0000443c <std.isra.0>:
    443c:	e3a03000 	mov	r3, #0
    4440:	e92d4010 	push	{r4, lr}
    4444:	e1a04000 	mov	r4, r0
    4448:	e1c010bc 	strh	r1, [r0, #12]
    444c:	e1c020be 	strh	r2, [r0, #14]
    4450:	e5803000 	str	r3, [r0]
    4454:	e5803004 	str	r3, [r0, #4]
    4458:	e5803008 	str	r3, [r0, #8]
    445c:	e5803064 	str	r3, [r0, #100]	; 0x64
    4460:	e5803010 	str	r3, [r0, #16]
    4464:	e5803014 	str	r3, [r0, #20]
    4468:	e5803018 	str	r3, [r0, #24]
    446c:	e1a01003 	mov	r1, r3
    4470:	e280005c 	add	r0, r0, #92	; 0x5c
    4474:	e3a02008 	mov	r2, #8
    4478:	eb0004e2 	bl	5808 <memset>
    447c:	e59f3024 	ldr	r3, [pc, #36]	; 44a8 <std.isra.0+0x6c>
    4480:	e5843020 	str	r3, [r4, #32]
    4484:	e59f3020 	ldr	r3, [pc, #32]	; 44ac <std.isra.0+0x70>
    4488:	e5843024 	str	r3, [r4, #36]	; 0x24
    448c:	e59f301c 	ldr	r3, [pc, #28]	; 44b0 <std.isra.0+0x74>
    4490:	e5843028 	str	r3, [r4, #40]	; 0x28
    4494:	e59f3018 	ldr	r3, [pc, #24]	; 44b4 <std.isra.0+0x78>
    4498:	e584401c 	str	r4, [r4, #28]
    449c:	e584302c 	str	r3, [r4, #44]	; 0x2c
    44a0:	e8bd4010 	pop	{r4, lr}
    44a4:	e12fff1e 	bx	lr
    44a8:	00006710 	.word	0x00006710
    44ac:	0000674c 	.word	0x0000674c
    44b0:	000067a4 	.word	0x000067a4
    44b4:	000067d8 	.word	0x000067d8

000044b8 <__sfmoreglue>:
    44b8:	e92d4070 	push	{r4, r5, r6, lr}
    44bc:	e0816081 	add	r6, r1, r1, lsl #1
    44c0:	e0816106 	add	r6, r1, r6, lsl #2
    44c4:	e1a06186 	lsl	r6, r6, #3
    44c8:	e1a05001 	mov	r5, r1
    44cc:	e286100c 	add	r1, r6, #12
    44d0:	eb00023b 	bl	4dc4 <_malloc_r>
    44d4:	e2504000 	subs	r4, r0, #0
    44d8:	0a000005 	beq	44f4 <__sfmoreglue+0x3c>
    44dc:	e284000c 	add	r0, r4, #12
    44e0:	e3a01000 	mov	r1, #0
    44e4:	e8840022 	stm	r4, {r1, r5}
    44e8:	e5840008 	str	r0, [r4, #8]
    44ec:	e1a02006 	mov	r2, r6
    44f0:	eb0004c4 	bl	5808 <memset>
    44f4:	e1a00004 	mov	r0, r4
    44f8:	e8bd4070 	pop	{r4, r5, r6, lr}
    44fc:	e12fff1e 	bx	lr

00004500 <_cleanup>:
    4500:	e59f3004 	ldr	r3, [pc, #4]	; 450c <_cleanup+0xc>
    4504:	e5930000 	ldr	r0, [r3]
    4508:	eaffffc5 	b	4424 <_cleanup_r>
    450c:	0000af40 	.word	0x0000af40

00004510 <__sinit>:
    4510:	e92d4038 	push	{r3, r4, r5, lr}
    4514:	e5903038 	ldr	r3, [r0, #56]	; 0x38
    4518:	e3530000 	cmp	r3, #0
    451c:	e1a04000 	mov	r4, r0
    4520:	0a000001 	beq	452c <__sinit+0x1c>
    4524:	e8bd4038 	pop	{r3, r4, r5, lr}
    4528:	e12fff1e 	bx	lr
    452c:	e59fe050 	ldr	lr, [pc, #80]	; 4584 <__sinit+0x74>
    4530:	e280cfbb 	add	r12, r0, #748	; 0x2ec
    4534:	e3a05001 	mov	r5, #1
    4538:	e1a02003 	mov	r2, r3
    453c:	e58432e0 	str	r3, [r4, #736]	; 0x2e0
    4540:	e3a03003 	mov	r3, #3
    4544:	e584e03c 	str	lr, [r4, #60]	; 0x3c
    4548:	e58432e4 	str	r3, [r4, #740]	; 0x2e4
    454c:	e584c2e8 	str	r12, [r4, #744]	; 0x2e8
    4550:	e5900004 	ldr	r0, [r0, #4]
    4554:	e3a01004 	mov	r1, #4
    4558:	e5845038 	str	r5, [r4, #56]	; 0x38
    455c:	ebffffb6 	bl	443c <std.isra.0>
    4560:	e5940008 	ldr	r0, [r4, #8]
    4564:	e1a02005 	mov	r2, r5
    4568:	e3a01009 	mov	r1, #9
    456c:	ebffffb2 	bl	443c <std.isra.0>
    4570:	e594000c 	ldr	r0, [r4, #12]
    4574:	e3a01012 	mov	r1, #18
    4578:	e3a02002 	mov	r2, #2
    457c:	e8bd4038 	pop	{r3, r4, r5, lr}
    4580:	eaffffad 	b	443c <std.isra.0>
    4584:	00004424 	.word	0x00004424

00004588 <__sfp>:
    4588:	e59f30ec 	ldr	r3, [pc, #236]	; 467c <__sfp+0xf4>
    458c:	e92d4070 	push	{r4, r5, r6, lr}
    4590:	e5935000 	ldr	r5, [r3]
    4594:	e5953038 	ldr	r3, [r5, #56]	; 0x38
    4598:	e3530000 	cmp	r3, #0
    459c:	e1a06000 	mov	r6, r0
    45a0:	0a000028 	beq	4648 <__sfp+0xc0>
    45a4:	e2855e2e 	add	r5, r5, #736	; 0x2e0
    45a8:	e5953004 	ldr	r3, [r5, #4]
    45ac:	e2533001 	subs	r3, r3, #1
    45b0:	e5954008 	ldr	r4, [r5, #8]
    45b4:	5a000004 	bpl	45cc <__sfp+0x44>
    45b8:	ea00001d 	b	4634 <__sfp+0xac>
    45bc:	e2433001 	sub	r3, r3, #1
    45c0:	e3730001 	cmn	r3, #1
    45c4:	e2844068 	add	r4, r4, #104	; 0x68
    45c8:	0a000019 	beq	4634 <__sfp+0xac>
    45cc:	e1d420fc 	ldrsh	r2, [r4, #12]
    45d0:	e3520000 	cmp	r2, #0
    45d4:	1afffff8 	bne	45bc <__sfp+0x34>
    45d8:	e3e03000 	mvn	r3, #0
    45dc:	e3a05000 	mov	r5, #0
    45e0:	e1c430be 	strh	r3, [r4, #14]
    45e4:	e3a03001 	mov	r3, #1
    45e8:	e1c430bc 	strh	r3, [r4, #12]
    45ec:	e5845064 	str	r5, [r4, #100]	; 0x64
    45f0:	e5845000 	str	r5, [r4]
    45f4:	e5845008 	str	r5, [r4, #8]
    45f8:	e5845004 	str	r5, [r4, #4]
    45fc:	e5845010 	str	r5, [r4, #16]
    4600:	e5845014 	str	r5, [r4, #20]
    4604:	e5845018 	str	r5, [r4, #24]
    4608:	e284005c 	add	r0, r4, #92	; 0x5c
    460c:	e1a01005 	mov	r1, r5
    4610:	e3a02008 	mov	r2, #8
    4614:	eb00047b 	bl	5808 <memset>
    4618:	e5845030 	str	r5, [r4, #48]	; 0x30
    461c:	e5845034 	str	r5, [r4, #52]	; 0x34
    4620:	e5845044 	str	r5, [r4, #68]	; 0x44
    4624:	e5845048 	str	r5, [r4, #72]	; 0x48
    4628:	e1a00004 	mov	r0, r4
    462c:	e8bd4070 	pop	{r4, r5, r6, lr}
    4630:	e12fff1e 	bx	lr
    4634:	e5950000 	ldr	r0, [r5]
    4638:	e3500000 	cmp	r0, #0
    463c:	0a000004 	beq	4654 <__sfp+0xcc>
    4640:	e1a05000 	mov	r5, r0
    4644:	eaffffd7 	b	45a8 <__sfp+0x20>
    4648:	e1a00005 	mov	r0, r5
    464c:	ebffffaf 	bl	4510 <__sinit>
    4650:	eaffffd3 	b	45a4 <__sfp+0x1c>
    4654:	e1a00006 	mov	r0, r6
    4658:	e3a01004 	mov	r1, #4
    465c:	ebffff95 	bl	44b8 <__sfmoreglue>
    4660:	e3500000 	cmp	r0, #0
    4664:	e5850000 	str	r0, [r5]
    4668:	1afffff4 	bne	4640 <__sfp+0xb8>
    466c:	e3a0300c 	mov	r3, #12
    4670:	e5863000 	str	r3, [r6]
    4674:	e1a04000 	mov	r4, r0
    4678:	eaffffea 	b	4628 <__sfp+0xa0>
    467c:	0000af40 	.word	0x0000af40

00004680 <__sfp_lock_acquire>:
    4680:	e12fff1e 	bx	lr

00004684 <__sfp_lock_release>:
    4684:	e12fff1e 	bx	lr

00004688 <__sinit_lock_acquire>:
    4688:	e12fff1e 	bx	lr

0000468c <__sinit_lock_release>:
    468c:	e12fff1e 	bx	lr

00004690 <__fp_lock_all>:
    4690:	e92d4008 	push	{r3, lr}
    4694:	e59f3010 	ldr	r3, [pc, #16]	; 46ac <__fp_lock_all+0x1c>
    4698:	e59f1010 	ldr	r1, [pc, #16]	; 46b0 <__fp_lock_all+0x20>
    469c:	e5930000 	ldr	r0, [r3]
    46a0:	eb0000f7 	bl	4a84 <_fwalk>
    46a4:	e8bd4008 	pop	{r3, lr}
    46a8:	e12fff1e 	bx	lr
    46ac:	0000b170 	.word	0x0000b170
    46b0:	00004414 	.word	0x00004414

000046b4 <__fp_unlock_all>:
    46b4:	e92d4008 	push	{r3, lr}
    46b8:	e59f3010 	ldr	r3, [pc, #16]	; 46d0 <__fp_unlock_all+0x1c>
    46bc:	e59f1010 	ldr	r1, [pc, #16]	; 46d4 <__fp_unlock_all+0x20>
    46c0:	e5930000 	ldr	r0, [r3]
    46c4:	eb0000ee 	bl	4a84 <_fwalk>
    46c8:	e8bd4008 	pop	{r3, lr}
    46cc:	e12fff1e 	bx	lr
    46d0:	0000b170 	.word	0x0000b170
    46d4:	0000441c 	.word	0x0000441c

000046d8 <__libc_fini_array>:
    46d8:	e92d4038 	push	{r3, r4, r5, lr}
    46dc:	e59f5030 	ldr	r5, [pc, #48]	; 4714 <__libc_fini_array+0x3c>
    46e0:	e59f4030 	ldr	r4, [pc, #48]	; 4718 <__libc_fini_array+0x40>
    46e4:	e0654004 	rsb	r4, r5, r4
    46e8:	e1b04144 	asrs	r4, r4, #2
    46ec:	10855104 	addne	r5, r5, r4, lsl #2
    46f0:	0a000004 	beq	4708 <__libc_fini_array+0x30>
    46f4:	e5353004 	ldr	r3, [r5, #-4]!
    46f8:	e1a0e00f 	mov	lr, pc
    46fc:	e12fff13 	bx	r3
    4700:	e2544001 	subs	r4, r4, #1
    4704:	1afffffa 	bne	46f4 <__libc_fini_array+0x1c>
    4708:	eb001a8a 	bl	b138 <__libc_fini>
    470c:	e8bd4038 	pop	{r3, r4, r5, lr}
    4710:	e12fff1e 	bx	lr
    4714:	0000b150 	.word	0x0000b150
    4718:	0000b154 	.word	0x0000b154

0000471c <_malloc_trim_r>:
    471c:	e92d40f8 	push	{r3, r4, r5, r6, r7, lr}
    4720:	e59f50e4 	ldr	r5, [pc, #228]	; 480c <_malloc_trim_r+0xf0>
    4724:	e1a07001 	mov	r7, r1
    4728:	e1a04000 	mov	r4, r0
    472c:	eb000482 	bl	593c <__malloc_lock>
    4730:	e5953008 	ldr	r3, [r5, #8]
    4734:	e5936004 	ldr	r6, [r3, #4]
    4738:	e3c66003 	bic	r6, r6, #3
    473c:	e2863efe 	add	r3, r6, #4064	; 0xfe0
    4740:	e283300f 	add	r3, r3, #15
    4744:	e0677003 	rsb	r7, r7, r3
    4748:	e1a07627 	lsr	r7, r7, #12
    474c:	e2477001 	sub	r7, r7, #1
    4750:	e1a07607 	lsl	r7, r7, #12
    4754:	e3570a01 	cmp	r7, #4096	; 0x1000
    4758:	ba000006 	blt	4778 <_malloc_trim_r+0x5c>
    475c:	e1a00004 	mov	r0, r4
    4760:	e3a01000 	mov	r1, #0
    4764:	eb0007d9 	bl	66d0 <_sbrk_r>
    4768:	e5953008 	ldr	r3, [r5, #8]
    476c:	e0833006 	add	r3, r3, r6
    4770:	e1500003 	cmp	r0, r3
    4774:	0a000004 	beq	478c <_malloc_trim_r+0x70>
    4778:	e1a00004 	mov	r0, r4
    477c:	eb00046f 	bl	5940 <__malloc_unlock>
    4780:	e3a00000 	mov	r0, #0
    4784:	e8bd40f8 	pop	{r3, r4, r5, r6, r7, lr}
    4788:	e12fff1e 	bx	lr
    478c:	e1a00004 	mov	r0, r4
    4790:	e2671000 	rsb	r1, r7, #0
    4794:	eb0007cd 	bl	66d0 <_sbrk_r>
    4798:	e3700001 	cmn	r0, #1
    479c:	0a00000b 	beq	47d0 <_malloc_trim_r+0xb4>
    47a0:	e59f3068 	ldr	r3, [pc, #104]	; 4810 <_malloc_trim_r+0xf4>
    47a4:	e5952008 	ldr	r2, [r5, #8]
    47a8:	e5931000 	ldr	r1, [r3]
    47ac:	e0676006 	rsb	r6, r7, r6
    47b0:	e3866001 	orr	r6, r6, #1
    47b4:	e0677001 	rsb	r7, r7, r1
    47b8:	e1a00004 	mov	r0, r4
    47bc:	e5826004 	str	r6, [r2, #4]
    47c0:	e5837000 	str	r7, [r3]
    47c4:	eb00045d 	bl	5940 <__malloc_unlock>
    47c8:	e3a00001 	mov	r0, #1
    47cc:	eaffffec 	b	4784 <_malloc_trim_r+0x68>
    47d0:	e1a00004 	mov	r0, r4
    47d4:	e3a01000 	mov	r1, #0
    47d8:	eb0007bc 	bl	66d0 <_sbrk_r>
    47dc:	e5953008 	ldr	r3, [r5, #8]
    47e0:	e0632000 	rsb	r2, r3, r0
    47e4:	e352000f 	cmp	r2, #15
    47e8:	daffffe2 	ble	4778 <_malloc_trim_r+0x5c>
    47ec:	e59f1020 	ldr	r1, [pc, #32]	; 4814 <_malloc_trim_r+0xf8>
    47f0:	e5911000 	ldr	r1, [r1]
    47f4:	e0610000 	rsb	r0, r1, r0
    47f8:	e59f1010 	ldr	r1, [pc, #16]	; 4810 <_malloc_trim_r+0xf4>
    47fc:	e3822001 	orr	r2, r2, #1
    4800:	e5810000 	str	r0, [r1]
    4804:	e5832004 	str	r2, [r3, #4]
    4808:	eaffffda 	b	4778 <_malloc_trim_r+0x5c>
    480c:	0000b61c 	.word	0x0000b61c
    4810:	0000ba64 	.word	0x0000ba64
    4814:	0000ba24 	.word	0x0000ba24

00004818 <_free_r>:
    4818:	e92d40f8 	push	{r3, r4, r5, r6, r7, lr}
    481c:	e2514000 	subs	r4, r1, #0
    4820:	e1a06000 	mov	r6, r0
    4824:	0a000046 	beq	4944 <_free_r+0x12c>
    4828:	eb000443 	bl	593c <__malloc_lock>
    482c:	e514e004 	ldr	lr, [r4, #-4]
    4830:	e59f1238 	ldr	r1, [pc, #568]	; 4a70 <_free_r+0x258>
    4834:	e244c008 	sub	r12, r4, #8
    4838:	e3ce3001 	bic	r3, lr, #1
    483c:	e08c2003 	add	r2, r12, r3
    4840:	e5910008 	ldr	r0, [r1, #8]
    4844:	e5925004 	ldr	r5, [r2, #4]
    4848:	e1500002 	cmp	r0, r2
    484c:	e3c55003 	bic	r5, r5, #3
    4850:	0a00004a 	beq	4980 <_free_r+0x168>
    4854:	e21ee001 	ands	lr, lr, #1
    4858:	e5825004 	str	r5, [r2, #4]
    485c:	13a0e000 	movne	lr, #0
    4860:	1a000009 	bne	488c <_free_r+0x74>
    4864:	e5144008 	ldr	r4, [r4, #-8]
    4868:	e064c00c 	rsb	r12, r4, r12
    486c:	e59c0008 	ldr	r0, [r12, #8]
    4870:	e2817008 	add	r7, r1, #8
    4874:	e1500007 	cmp	r0, r7
    4878:	e0833004 	add	r3, r3, r4
    487c:	159c400c 	ldrne	r4, [r12, #12]
    4880:	1580400c 	strne	r4, [r0, #12]
    4884:	15840008 	strne	r0, [r4, #8]
    4888:	03a0e001 	moveq	lr, #1
    488c:	e0820005 	add	r0, r2, r5
    4890:	e5900004 	ldr	r0, [r0, #4]
    4894:	e3100001 	tst	r0, #1
    4898:	1a000009 	bne	48c4 <_free_r+0xac>
    489c:	e35e0000 	cmp	lr, #0
    48a0:	e5920008 	ldr	r0, [r2, #8]
    48a4:	e0833005 	add	r3, r3, r5
    48a8:	1a000002 	bne	48b8 <_free_r+0xa0>
    48ac:	e59f41c0 	ldr	r4, [pc, #448]	; 4a74 <_free_r+0x25c>
    48b0:	e1500004 	cmp	r0, r4
    48b4:	0a000047 	beq	49d8 <_free_r+0x1c0>
    48b8:	e592200c 	ldr	r2, [r2, #12]
    48bc:	e580200c 	str	r2, [r0, #12]
    48c0:	e5820008 	str	r0, [r2, #8]
    48c4:	e3832001 	orr	r2, r3, #1
    48c8:	e35e0000 	cmp	lr, #0
    48cc:	e58c2004 	str	r2, [r12, #4]
    48d0:	e78c3003 	str	r3, [r12, r3]
    48d4:	1a000018 	bne	493c <_free_r+0x124>
    48d8:	e3530c02 	cmp	r3, #512	; 0x200
    48dc:	3a00001a 	bcc	494c <_free_r+0x134>
    48e0:	e1a024a3 	lsr	r2, r3, #9
    48e4:	e3520004 	cmp	r2, #4
    48e8:	8a000042 	bhi	49f8 <_free_r+0x1e0>
    48ec:	e1a0e323 	lsr	lr, r3, #6
    48f0:	e28ee038 	add	lr, lr, #56	; 0x38
    48f4:	e1a0008e 	lsl	r0, lr, #1
    48f8:	e0810100 	add	r0, r1, r0, lsl #2
    48fc:	e5902008 	ldr	r2, [r0, #8]
    4900:	e1520000 	cmp	r2, r0
    4904:	e59f1164 	ldr	r1, [pc, #356]	; 4a70 <_free_r+0x258>
    4908:	0a000044 	beq	4a20 <_free_r+0x208>
    490c:	e5921004 	ldr	r1, [r2, #4]
    4910:	e3c11003 	bic	r1, r1, #3
    4914:	e1530001 	cmp	r3, r1
    4918:	2a000002 	bcs	4928 <_free_r+0x110>
    491c:	e5922008 	ldr	r2, [r2, #8]
    4920:	e1500002 	cmp	r0, r2
    4924:	1afffff8 	bne	490c <_free_r+0xf4>
    4928:	e592300c 	ldr	r3, [r2, #12]
    492c:	e58c300c 	str	r3, [r12, #12]
    4930:	e58c2008 	str	r2, [r12, #8]
    4934:	e582c00c 	str	r12, [r2, #12]
    4938:	e583c008 	str	r12, [r3, #8]
    493c:	e1a00006 	mov	r0, r6
    4940:	eb0003fe 	bl	5940 <__malloc_unlock>
    4944:	e8bd40f8 	pop	{r3, r4, r5, r6, r7, lr}
    4948:	e12fff1e 	bx	lr
    494c:	e5912004 	ldr	r2, [r1, #4]
    4950:	e1a031a3 	lsr	r3, r3, #3
    4954:	e1a00143 	asr	r0, r3, #2
    4958:	e3a0e001 	mov	lr, #1
    495c:	e182001e 	orr	r0, r2, lr, lsl r0
    4960:	e0813183 	add	r3, r1, r3, lsl #3
    4964:	e5932008 	ldr	r2, [r3, #8]
    4968:	e58c300c 	str	r3, [r12, #12]
    496c:	e58c2008 	str	r2, [r12, #8]
    4970:	e5810004 	str	r0, [r1, #4]
    4974:	e583c008 	str	r12, [r3, #8]
    4978:	e582c00c 	str	r12, [r2, #12]
    497c:	eaffffee 	b	493c <_free_r+0x124>
    4980:	e31e0001 	tst	lr, #1
    4984:	e0853003 	add	r3, r5, r3
    4988:	1a000006 	bne	49a8 <_free_r+0x190>
    498c:	e5142008 	ldr	r2, [r4, #-8]
    4990:	e062c00c 	rsb	r12, r2, r12
    4994:	e59c000c 	ldr	r0, [r12, #12]
    4998:	e59ce008 	ldr	lr, [r12, #8]
    499c:	e58e000c 	str	r0, [lr, #12]
    49a0:	e580e008 	str	lr, [r0, #8]
    49a4:	e0833002 	add	r3, r3, r2
    49a8:	e59f20c8 	ldr	r2, [pc, #200]	; 4a78 <_free_r+0x260>
    49ac:	e5920000 	ldr	r0, [r2]
    49b0:	e3832001 	orr	r2, r3, #1
    49b4:	e1530000 	cmp	r3, r0
    49b8:	e58c2004 	str	r2, [r12, #4]
    49bc:	e581c008 	str	r12, [r1, #8]
    49c0:	3affffdd 	bcc	493c <_free_r+0x124>
    49c4:	e59f30b0 	ldr	r3, [pc, #176]	; 4a7c <_free_r+0x264>
    49c8:	e1a00006 	mov	r0, r6
    49cc:	e5931000 	ldr	r1, [r3]
    49d0:	ebffff51 	bl	471c <_malloc_trim_r>
    49d4:	eaffffd8 	b	493c <_free_r+0x124>
    49d8:	e3832001 	orr	r2, r3, #1
    49dc:	e581c014 	str	r12, [r1, #20]
    49e0:	e581c010 	str	r12, [r1, #16]
    49e4:	e58c000c 	str	r0, [r12, #12]
    49e8:	e58c0008 	str	r0, [r12, #8]
    49ec:	e58c2004 	str	r2, [r12, #4]
    49f0:	e78c3003 	str	r3, [r12, r3]
    49f4:	eaffffd0 	b	493c <_free_r+0x124>
    49f8:	e3520014 	cmp	r2, #20
    49fc:	9282e05b 	addls	lr, r2, #91	; 0x5b
    4a00:	91a0008e 	lslls	r0, lr, #1
    4a04:	9affffbb 	bls	48f8 <_free_r+0xe0>
    4a08:	e3520054 	cmp	r2, #84	; 0x54
    4a0c:	8a00000a 	bhi	4a3c <_free_r+0x224>
    4a10:	e1a0e623 	lsr	lr, r3, #12
    4a14:	e28ee06e 	add	lr, lr, #110	; 0x6e
    4a18:	e1a0008e 	lsl	r0, lr, #1
    4a1c:	eaffffb5 	b	48f8 <_free_r+0xe0>
    4a20:	e5913004 	ldr	r3, [r1, #4]
    4a24:	e1a0e14e 	asr	lr, lr, #2
    4a28:	e3a00001 	mov	r0, #1
    4a2c:	e1830e10 	orr	r0, r3, r0, lsl lr
    4a30:	e1a03002 	mov	r3, r2
    4a34:	e5810004 	str	r0, [r1, #4]
    4a38:	eaffffbb 	b	492c <_free_r+0x114>
    4a3c:	e3520f55 	cmp	r2, #340	; 0x154
    4a40:	91a0e7a3 	lsrls	lr, r3, #15
    4a44:	928ee077 	addls	lr, lr, #119	; 0x77
    4a48:	91a0008e 	lslls	r0, lr, #1
    4a4c:	9affffa9 	bls	48f8 <_free_r+0xe0>
    4a50:	e59f0028 	ldr	r0, [pc, #40]	; 4a80 <_free_r+0x268>
    4a54:	e1520000 	cmp	r2, r0
    4a58:	91a0e923 	lsrls	lr, r3, #18
    4a5c:	928ee07c 	addls	lr, lr, #124	; 0x7c
    4a60:	91a0008e 	lslls	r0, lr, #1
    4a64:	83a000fc 	movhi	r0, #252	; 0xfc
    4a68:	83a0e07e 	movhi	lr, #126	; 0x7e
    4a6c:	eaffffa1 	b	48f8 <_free_r+0xe0>
    4a70:	0000b61c 	.word	0x0000b61c
    4a74:	0000b624 	.word	0x0000b624
    4a78:	0000ba28 	.word	0x0000ba28
    4a7c:	0000ba60 	.word	0x0000ba60
    4a80:	00000554 	.word	0x00000554

00004a84 <_fwalk>:
    4a84:	e92d41f0 	push	{r4, r5, r6, r7, r8, lr}
    4a88:	e1a06000 	mov	r6, r0
    4a8c:	e1a08001 	mov	r8, r1
    4a90:	ebfffefa 	bl	4680 <__sfp_lock_acquire>
    4a94:	e2966e2e 	adds	r6, r6, #736	; 0x2e0
    4a98:	0a000019 	beq	4b04 <_fwalk+0x80>
    4a9c:	e3a07000 	mov	r7, #0
    4aa0:	e5965004 	ldr	r5, [r6, #4]
    4aa4:	e2555001 	subs	r5, r5, #1
    4aa8:	e5964008 	ldr	r4, [r6, #8]
    4aac:	4a00000d 	bmi	4ae8 <_fwalk+0x64>
    4ab0:	e1d430fc 	ldrsh	r3, [r4, #12]
    4ab4:	e3530000 	cmp	r3, #0
    4ab8:	e2455001 	sub	r5, r5, #1
    4abc:	0a000006 	beq	4adc <_fwalk+0x58>
    4ac0:	e1d430fe 	ldrsh	r3, [r4, #14]
    4ac4:	e3730001 	cmn	r3, #1
    4ac8:	e1a00004 	mov	r0, r4
    4acc:	0a000002 	beq	4adc <_fwalk+0x58>
    4ad0:	e1a0e00f 	mov	lr, pc
    4ad4:	e12fff18 	bx	r8
    4ad8:	e1877000 	orr	r7, r7, r0
    4adc:	e3750001 	cmn	r5, #1
    4ae0:	e2844068 	add	r4, r4, #104	; 0x68
    4ae4:	1afffff1 	bne	4ab0 <_fwalk+0x2c>
    4ae8:	e5966000 	ldr	r6, [r6]
    4aec:	e3560000 	cmp	r6, #0
    4af0:	1affffea 	bne	4aa0 <_fwalk+0x1c>
    4af4:	ebfffee2 	bl	4684 <__sfp_lock_release>
    4af8:	e1a00007 	mov	r0, r7
    4afc:	e8bd41f0 	pop	{r4, r5, r6, r7, r8, lr}
    4b00:	e12fff1e 	bx	lr
    4b04:	e1a07006 	mov	r7, r6
    4b08:	eafffff9 	b	4af4 <_fwalk+0x70>

00004b0c <_fwalk_reent>:
    4b0c:	e92d45f8 	push	{r3, r4, r5, r6, r7, r8, r10, lr}
    4b10:	e1a07000 	mov	r7, r0
    4b14:	e1a08001 	mov	r8, r1
    4b18:	ebfffed8 	bl	4680 <__sfp_lock_acquire>
    4b1c:	e2976e2e 	adds	r6, r7, #736	; 0x2e0
    4b20:	0a00001a 	beq	4b90 <_fwalk_reent+0x84>
    4b24:	e3a0a000 	mov	r10, #0
    4b28:	e5965004 	ldr	r5, [r6, #4]
    4b2c:	e2555001 	subs	r5, r5, #1
    4b30:	e5964008 	ldr	r4, [r6, #8]
    4b34:	4a00000e 	bmi	4b74 <_fwalk_reent+0x68>
    4b38:	e1d430fc 	ldrsh	r3, [r4, #12]
    4b3c:	e3530000 	cmp	r3, #0
    4b40:	e2455001 	sub	r5, r5, #1
    4b44:	0a000007 	beq	4b68 <_fwalk_reent+0x5c>
    4b48:	e1d430fe 	ldrsh	r3, [r4, #14]
    4b4c:	e3730001 	cmn	r3, #1
    4b50:	e1a01004 	mov	r1, r4
    4b54:	e1a00007 	mov	r0, r7
    4b58:	0a000002 	beq	4b68 <_fwalk_reent+0x5c>
    4b5c:	e1a0e00f 	mov	lr, pc
    4b60:	e12fff18 	bx	r8
    4b64:	e18aa000 	orr	r10, r10, r0
    4b68:	e3750001 	cmn	r5, #1
    4b6c:	e2844068 	add	r4, r4, #104	; 0x68
    4b70:	1afffff0 	bne	4b38 <_fwalk_reent+0x2c>
    4b74:	e5966000 	ldr	r6, [r6]
    4b78:	e3560000 	cmp	r6, #0
    4b7c:	1affffe9 	bne	4b28 <_fwalk_reent+0x1c>
    4b80:	ebfffebf 	bl	4684 <__sfp_lock_release>
    4b84:	e1a0000a 	mov	r0, r10
    4b88:	e8bd45f8 	pop	{r3, r4, r5, r6, r7, r8, r10, lr}
    4b8c:	e12fff1e 	bx	lr
    4b90:	e1a0a006 	mov	r10, r6
    4b94:	eafffff9 	b	4b80 <_fwalk_reent+0x74>

00004b98 <_setlocale_r>:
    4b98:	e92d4010 	push	{r4, lr}
    4b9c:	e2524000 	subs	r4, r2, #0
    4ba0:	0a000004 	beq	4bb8 <_setlocale_r+0x20>
    4ba4:	e1a00004 	mov	r0, r4
    4ba8:	e59f1048 	ldr	r1, [pc, #72]	; 4bf8 <_setlocale_r+0x60>
    4bac:	eb00070e 	bl	67ec <strcmp>
    4bb0:	e3500000 	cmp	r0, #0
    4bb4:	1a000002 	bne	4bc4 <_setlocale_r+0x2c>
    4bb8:	e59f003c 	ldr	r0, [pc, #60]	; 4bfc <_setlocale_r+0x64>
    4bbc:	e8bd4010 	pop	{r4, lr}
    4bc0:	e12fff1e 	bx	lr
    4bc4:	e1a00004 	mov	r0, r4
    4bc8:	e59f102c 	ldr	r1, [pc, #44]	; 4bfc <_setlocale_r+0x64>
    4bcc:	eb000706 	bl	67ec <strcmp>
    4bd0:	e3500000 	cmp	r0, #0
    4bd4:	0afffff7 	beq	4bb8 <_setlocale_r+0x20>
    4bd8:	e1a00004 	mov	r0, r4
    4bdc:	e59f101c 	ldr	r1, [pc, #28]	; 4c00 <_setlocale_r+0x68>
    4be0:	eb000701 	bl	67ec <strcmp>
    4be4:	e59f3010 	ldr	r3, [pc, #16]	; 4bfc <_setlocale_r+0x64>
    4be8:	e3500000 	cmp	r0, #0
    4bec:	01a00003 	moveq	r0, r3
    4bf0:	13a00000 	movne	r0, #0
    4bf4:	eafffff0 	b	4bbc <_setlocale_r+0x24>
    4bf8:	0000afbc 	.word	0x0000afbc
    4bfc:	0000af44 	.word	0x0000af44
    4c00:	0000af88 	.word	0x0000af88

00004c04 <__locale_charset>:
    4c04:	e59f0000 	ldr	r0, [pc]	; 4c0c <__locale_charset+0x8>
    4c08:	e12fff1e 	bx	lr
    4c0c:	0000b5a0 	.word	0x0000b5a0

00004c10 <__locale_mb_cur_max>:
    4c10:	e59f3004 	ldr	r3, [pc, #4]	; 4c1c <__locale_mb_cur_max+0xc>
    4c14:	e5930020 	ldr	r0, [r3, #32]
    4c18:	e12fff1e 	bx	lr
    4c1c:	0000b5a0 	.word	0x0000b5a0

00004c20 <__locale_msgcharset>:
    4c20:	e59f0000 	ldr	r0, [pc]	; 4c28 <__locale_msgcharset+0x8>
    4c24:	e12fff1e 	bx	lr
    4c28:	0000b5c4 	.word	0x0000b5c4

00004c2c <__locale_cjk_lang>:
    4c2c:	e3a00000 	mov	r0, #0
    4c30:	e12fff1e 	bx	lr

00004c34 <_localeconv_r>:
    4c34:	e59f0000 	ldr	r0, [pc]	; 4c3c <_localeconv_r+0x8>
    4c38:	e12fff1e 	bx	lr
    4c3c:	0000b5e4 	.word	0x0000b5e4

00004c40 <setlocale>:
    4c40:	e1a02001 	mov	r2, r1
    4c44:	e59f100c 	ldr	r1, [pc, #12]	; 4c58 <setlocale+0x18>
    4c48:	e1a03000 	mov	r3, r0
    4c4c:	e5910000 	ldr	r0, [r1]
    4c50:	e1a01003 	mov	r1, r3
    4c54:	eaffffcf 	b	4b98 <_setlocale_r>
    4c58:	0000b170 	.word	0x0000b170

00004c5c <localeconv>:
    4c5c:	e59f0000 	ldr	r0, [pc]	; 4c64 <localeconv+0x8>
    4c60:	e12fff1e 	bx	lr
    4c64:	0000b5e4 	.word	0x0000b5e4

00004c68 <__smakebuf_r>:
    4c68:	e92d40f0 	push	{r4, r5, r6, r7, lr}
    4c6c:	e1d130bc 	ldrh	r3, [r1, #12]
    4c70:	e3130002 	tst	r3, #2
    4c74:	e24dd044 	sub	sp, sp, #68	; 0x44
    4c78:	e1a04001 	mov	r4, r1
    4c7c:	e1a05000 	mov	r5, r0
    4c80:	1a00002b 	bne	4d34 <__smakebuf_r+0xcc>
    4c84:	e1d110fe 	ldrsh	r1, [r1, #14]
    4c88:	e3510000 	cmp	r1, #0
    4c8c:	ba000010 	blt	4cd4 <__smakebuf_r+0x6c>
    4c90:	e28d2004 	add	r2, sp, #4
    4c94:	eb000d18 	bl	80fc <_fstat_r>
    4c98:	e3500000 	cmp	r0, #0
    4c9c:	ba00000b 	blt	4cd0 <__smakebuf_r+0x68>
    4ca0:	e59d3008 	ldr	r3, [sp, #8]
    4ca4:	e2033a0f 	and	r3, r3, #61440	; 0xf000
    4ca8:	e2532a02 	subs	r2, r3, #8192	; 0x2000
    4cac:	e2727000 	rsbs	r7, r2, #0
    4cb0:	e0b77002 	adcs	r7, r7, r2
    4cb4:	e3530902 	cmp	r3, #32768	; 0x8000
    4cb8:	0a000023 	beq	4d4c <__smakebuf_r+0xe4>
    4cbc:	e1d430bc 	ldrh	r3, [r4, #12]
    4cc0:	e3833b02 	orr	r3, r3, #2048	; 0x800
    4cc4:	e1c430bc 	strh	r3, [r4, #12]
    4cc8:	e3a06b01 	mov	r6, #1024	; 0x400
    4ccc:	ea000006 	b	4cec <__smakebuf_r+0x84>
    4cd0:	e1d430bc 	ldrh	r3, [r4, #12]
    4cd4:	e3130080 	tst	r3, #128	; 0x80
    4cd8:	e3833b02 	orr	r3, r3, #2048	; 0x800
    4cdc:	e1c430bc 	strh	r3, [r4, #12]
    4ce0:	03a06b01 	moveq	r6, #1024	; 0x400
    4ce4:	13a06040 	movne	r6, #64	; 0x40
    4ce8:	e3a07000 	mov	r7, #0
    4cec:	e1a00005 	mov	r0, r5
    4cf0:	e1a01006 	mov	r1, r6
    4cf4:	eb000032 	bl	4dc4 <_malloc_r>
    4cf8:	e3500000 	cmp	r0, #0
    4cfc:	e1d430bc 	ldrh	r3, [r4, #12]
    4d00:	0a000023 	beq	4d94 <__smakebuf_r+0x12c>
    4d04:	e59f20b0 	ldr	r2, [pc, #176]	; 4dbc <__smakebuf_r+0x154>
    4d08:	e3833080 	orr	r3, r3, #128	; 0x80
    4d0c:	e3570000 	cmp	r7, #0
    4d10:	e585203c 	str	r2, [r5, #60]	; 0x3c
    4d14:	e1c430bc 	strh	r3, [r4, #12]
    4d18:	e5840000 	str	r0, [r4]
    4d1c:	e5840010 	str	r0, [r4, #16]
    4d20:	e5846014 	str	r6, [r4, #20]
    4d24:	1a000012 	bne	4d74 <__smakebuf_r+0x10c>
    4d28:	e28dd044 	add	sp, sp, #68	; 0x44
    4d2c:	e8bd40f0 	pop	{r4, r5, r6, r7, lr}
    4d30:	e12fff1e 	bx	lr
    4d34:	e2813043 	add	r3, r1, #67	; 0x43
    4d38:	e5813000 	str	r3, [r1]
    4d3c:	e5813010 	str	r3, [r1, #16]
    4d40:	e3a03001 	mov	r3, #1
    4d44:	e5813014 	str	r3, [r1, #20]
    4d48:	eafffff6 	b	4d28 <__smakebuf_r+0xc0>
    4d4c:	e5942028 	ldr	r2, [r4, #40]	; 0x28
    4d50:	e59f3068 	ldr	r3, [pc, #104]	; 4dc0 <__smakebuf_r+0x158>
    4d54:	e1520003 	cmp	r2, r3
    4d58:	1affffd7 	bne	4cbc <__smakebuf_r+0x54>
    4d5c:	e1d430bc 	ldrh	r3, [r4, #12]
    4d60:	e3a06b01 	mov	r6, #1024	; 0x400
    4d64:	e1833006 	orr	r3, r3, r6
    4d68:	e1c430bc 	strh	r3, [r4, #12]
    4d6c:	e584604c 	str	r6, [r4, #76]	; 0x4c
    4d70:	eaffffdd 	b	4cec <__smakebuf_r+0x84>
    4d74:	e1a00005 	mov	r0, r5
    4d78:	e1d410fe 	ldrsh	r1, [r4, #14]
    4d7c:	eb000e1f 	bl	8600 <_isatty_r>
    4d80:	e3500000 	cmp	r0, #0
    4d84:	11d430bc 	ldrhne	r3, [r4, #12]
    4d88:	13833001 	orrne	r3, r3, #1
    4d8c:	11c430bc 	strhne	r3, [r4, #12]
    4d90:	eaffffe4 	b	4d28 <__smakebuf_r+0xc0>
    4d94:	e3130c02 	tst	r3, #512	; 0x200
    4d98:	1affffe2 	bne	4d28 <__smakebuf_r+0xc0>
    4d9c:	e3833002 	orr	r3, r3, #2
    4da0:	e2842043 	add	r2, r4, #67	; 0x43
    4da4:	e1c430bc 	strh	r3, [r4, #12]
    4da8:	e3a03001 	mov	r3, #1
    4dac:	e5842000 	str	r2, [r4]
    4db0:	e5842010 	str	r2, [r4, #16]
    4db4:	e5843014 	str	r3, [r4, #20]
    4db8:	eaffffda 	b	4d28 <__smakebuf_r+0xc0>
    4dbc:	00004424 	.word	0x00004424
    4dc0:	000067a4 	.word	0x000067a4

00004dc4 <_malloc_r>:
    4dc4:	e92d4ff0 	push	{r4, r5, r6, r7, r8, r9, r10, r11, lr}
    4dc8:	e281500b 	add	r5, r1, #11
    4dcc:	e3550016 	cmp	r5, #22
    4dd0:	83c55007 	bichi	r5, r5, #7
    4dd4:	81a03fa5 	lsrhi	r3, r5, #31
    4dd8:	93a03000 	movls	r3, #0
    4ddc:	93a05010 	movls	r5, #16
    4de0:	e1550001 	cmp	r5, r1
    4de4:	21a01003 	movcs	r1, r3
    4de8:	33831001 	orrcc	r1, r3, #1
    4dec:	e3510000 	cmp	r1, #0
    4df0:	13a0300c 	movne	r3, #12
    4df4:	e24dd00c 	sub	sp, sp, #12
    4df8:	e1a06000 	mov	r6, r0
    4dfc:	15803000 	strne	r3, [r0]
    4e00:	13a04000 	movne	r4, #0
    4e04:	1a000015 	bne	4e60 <_malloc_r+0x9c>
    4e08:	eb0002cb 	bl	593c <__malloc_lock>
    4e0c:	e3550f7e 	cmp	r5, #504	; 0x1f8
    4e10:	2a000016 	bcs	4e70 <_malloc_r+0xac>
    4e14:	e59f76b8 	ldr	r7, [pc, #1720]	; 54d4 <_malloc_r+0x710>
    4e18:	e1a0e1a5 	lsr	lr, r5, #3
    4e1c:	e087318e 	add	r3, r7, lr, lsl #3
    4e20:	e593400c 	ldr	r4, [r3, #12]
    4e24:	e1540003 	cmp	r4, r3
    4e28:	0a00014b 	beq	535c <_malloc_r+0x598>
    4e2c:	e5943004 	ldr	r3, [r4, #4]
    4e30:	e3c33003 	bic	r3, r3, #3
    4e34:	e0843003 	add	r3, r4, r3
    4e38:	e5930004 	ldr	r0, [r3, #4]
    4e3c:	e2841008 	add	r1, r4, #8
    4e40:	e8910006 	ldm	r1, {r1, r2}
    4e44:	e3800001 	orr	r0, r0, #1
    4e48:	e5830004 	str	r0, [r3, #4]
    4e4c:	e581200c 	str	r2, [r1, #12]
    4e50:	e5821008 	str	r1, [r2, #8]
    4e54:	e1a00006 	mov	r0, r6
    4e58:	eb0002b8 	bl	5940 <__malloc_unlock>
    4e5c:	e2844008 	add	r4, r4, #8
    4e60:	e1a00004 	mov	r0, r4
    4e64:	e28dd00c 	add	sp, sp, #12
    4e68:	e8bd4ff0 	pop	{r4, r5, r6, r7, r8, r9, r10, r11, lr}
    4e6c:	e12fff1e 	bx	lr
    4e70:	e1b0e4a5 	lsrs	lr, r5, #9
    4e74:	01a0e1a5 	lsreq	lr, r5, #3
    4e78:	01a0108e 	lsleq	r1, lr, #1
    4e7c:	1a000061 	bne	5008 <_malloc_r+0x244>
    4e80:	e59f764c 	ldr	r7, [pc, #1612]	; 54d4 <_malloc_r+0x710>
    4e84:	e0871101 	add	r1, r7, r1, lsl #2
    4e88:	e591400c 	ldr	r4, [r1, #12]
    4e8c:	e1510004 	cmp	r1, r4
    4e90:	1a000005 	bne	4eac <_malloc_r+0xe8>
    4e94:	ea00000a 	b	4ec4 <_malloc_r+0x100>
    4e98:	e3530000 	cmp	r3, #0
    4e9c:	aa0000d7 	bge	5200 <_malloc_r+0x43c>
    4ea0:	e594400c 	ldr	r4, [r4, #12]
    4ea4:	e1510004 	cmp	r1, r4
    4ea8:	0a000005 	beq	4ec4 <_malloc_r+0x100>
    4eac:	e5942004 	ldr	r2, [r4, #4]
    4eb0:	e3c22003 	bic	r2, r2, #3
    4eb4:	e0653002 	rsb	r3, r5, r2
    4eb8:	e353000f 	cmp	r3, #15
    4ebc:	dafffff5 	ble	4e98 <_malloc_r+0xd4>
    4ec0:	e24ee001 	sub	lr, lr, #1
    4ec4:	e28ee001 	add	lr, lr, #1
    4ec8:	e59f3604 	ldr	r3, [pc, #1540]	; 54d4 <_malloc_r+0x710>
    4ecc:	e5974010 	ldr	r4, [r7, #16]
    4ed0:	e2838008 	add	r8, r3, #8
    4ed4:	e1540008 	cmp	r4, r8
    4ed8:	05931004 	ldreq	r1, [r3, #4]
    4edc:	0a000016 	beq	4f3c <_malloc_r+0x178>
    4ee0:	e5942004 	ldr	r2, [r4, #4]
    4ee4:	e3c22003 	bic	r2, r2, #3
    4ee8:	e0651002 	rsb	r1, r5, r2
    4eec:	e351000f 	cmp	r1, #15
    4ef0:	ca0000f7 	bgt	52d4 <_malloc_r+0x510>
    4ef4:	e3510000 	cmp	r1, #0
    4ef8:	e5838014 	str	r8, [r3, #20]
    4efc:	e5838010 	str	r8, [r3, #16]
    4f00:	aa000046 	bge	5020 <_malloc_r+0x25c>
    4f04:	e3520c02 	cmp	r2, #512	; 0x200
    4f08:	2a0000d2 	bcs	5258 <_malloc_r+0x494>
    4f0c:	e5930004 	ldr	r0, [r3, #4]
    4f10:	e1a021a2 	lsr	r2, r2, #3
    4f14:	e1a01142 	asr	r1, r2, #2
    4f18:	e3a0c001 	mov	r12, #1
    4f1c:	e180111c 	orr	r1, r0, r12, lsl r1
    4f20:	e0832182 	add	r2, r3, r2, lsl #3
    4f24:	e5920008 	ldr	r0, [r2, #8]
    4f28:	e584200c 	str	r2, [r4, #12]
    4f2c:	e5840008 	str	r0, [r4, #8]
    4f30:	e5831004 	str	r1, [r3, #4]
    4f34:	e5824008 	str	r4, [r2, #8]
    4f38:	e580400c 	str	r4, [r0, #12]
    4f3c:	e1a0014e 	asr	r0, lr, #2
    4f40:	e3a03001 	mov	r3, #1
    4f44:	e1a00013 	lsl	r0, r3, r0
    4f48:	e1500001 	cmp	r0, r1
    4f4c:	8a00003b 	bhi	5040 <_malloc_r+0x27c>
    4f50:	e1110000 	tst	r1, r0
    4f54:	1a000008 	bne	4f7c <_malloc_r+0x1b8>
    4f58:	e1a00310 	lsl	r0, r0, r3
    4f5c:	e3cee003 	bic	lr, lr, #3
    4f60:	e1110000 	tst	r1, r0
    4f64:	e28ee004 	add	lr, lr, #4
    4f68:	1a000003 	bne	4f7c <_malloc_r+0x1b8>
    4f6c:	e1a00080 	lsl	r0, r0, #1
    4f70:	e1110000 	tst	r1, r0
    4f74:	e28ee004 	add	lr, lr, #4
    4f78:	0afffffb 	beq	4f6c <_malloc_r+0x1a8>
    4f7c:	e087a18e 	add	r10, r7, lr, lsl #3
    4f80:	e1a0c00a 	mov	r12, r10
    4f84:	e1a0400e 	mov	r4, lr
    4f88:	e59c300c 	ldr	r3, [r12, #12]
    4f8c:	e15c0003 	cmp	r12, r3
    4f90:	1a000005 	bne	4fac <_malloc_r+0x1e8>
    4f94:	ea0000db 	b	5308 <_malloc_r+0x544>
    4f98:	e3520000 	cmp	r2, #0
    4f9c:	aa0000f4 	bge	5374 <_malloc_r+0x5b0>
    4fa0:	e593300c 	ldr	r3, [r3, #12]
    4fa4:	e15c0003 	cmp	r12, r3
    4fa8:	0a0000d6 	beq	5308 <_malloc_r+0x544>
    4fac:	e5931004 	ldr	r1, [r3, #4]
    4fb0:	e3c11003 	bic	r1, r1, #3
    4fb4:	e0652001 	rsb	r2, r5, r1
    4fb8:	e352000f 	cmp	r2, #15
    4fbc:	dafffff5 	ble	4f98 <_malloc_r+0x1d4>
    4fc0:	e1a04003 	mov	r4, r3
    4fc4:	e593000c 	ldr	r0, [r3, #12]
    4fc8:	e5b4c008 	ldr	r12, [r4, #8]!
    4fcc:	e0831005 	add	r1, r3, r5
    4fd0:	e382e001 	orr	lr, r2, #1
    4fd4:	e3855001 	orr	r5, r5, #1
    4fd8:	e58c000c 	str	r0, [r12, #12]
    4fdc:	e580c008 	str	r12, [r0, #8]
    4fe0:	e5835004 	str	r5, [r3, #4]
    4fe4:	e5871014 	str	r1, [r7, #20]
    4fe8:	e5871010 	str	r1, [r7, #16]
    4fec:	e581800c 	str	r8, [r1, #12]
    4ff0:	e5818008 	str	r8, [r1, #8]
    4ff4:	e581e004 	str	lr, [r1, #4]
    4ff8:	e7812002 	str	r2, [r1, r2]
    4ffc:	e1a00006 	mov	r0, r6
    5000:	eb00024e 	bl	5940 <__malloc_unlock>
    5004:	eaffff95 	b	4e60 <_malloc_r+0x9c>
    5008:	e35e0004 	cmp	lr, #4
    500c:	8a000087 	bhi	5230 <_malloc_r+0x46c>
    5010:	e1a0e325 	lsr	lr, r5, #6
    5014:	e28ee038 	add	lr, lr, #56	; 0x38
    5018:	e1a0108e 	lsl	r1, lr, #1
    501c:	eaffff97 	b	4e80 <_malloc_r+0xbc>
    5020:	e0842002 	add	r2, r4, r2
    5024:	e5923004 	ldr	r3, [r2, #4]
    5028:	e3833001 	orr	r3, r3, #1
    502c:	e5823004 	str	r3, [r2, #4]
    5030:	e1a00006 	mov	r0, r6
    5034:	eb000241 	bl	5940 <__malloc_unlock>
    5038:	e2844008 	add	r4, r4, #8
    503c:	eaffff87 	b	4e60 <_malloc_r+0x9c>
    5040:	e5974008 	ldr	r4, [r7, #8]
    5044:	e594a004 	ldr	r10, [r4, #4]
    5048:	e3caa003 	bic	r10, r10, #3
    504c:	e155000a 	cmp	r5, r10
    5050:	8a000002 	bhi	5060 <_malloc_r+0x29c>
    5054:	e065300a 	rsb	r3, r5, r10
    5058:	e353000f 	cmp	r3, #15
    505c:	ca00005d 	bgt	51d8 <_malloc_r+0x414>
    5060:	e59f9470 	ldr	r9, [pc, #1136]	; 54d8 <_malloc_r+0x714>
    5064:	e5973408 	ldr	r3, [r7, #1032]	; 0x408
    5068:	e599b000 	ldr	r11, [r9]
    506c:	e3730001 	cmn	r3, #1
    5070:	e085b00b 	add	r11, r5, r11
    5074:	128bba01 	addne	r11, r11, #4096	; 0x1000
    5078:	128bb00f 	addne	r11, r11, #15
    507c:	13cbbeff 	bicne	r11, r11, #4080	; 0xff0
    5080:	028bb010 	addeq	r11, r11, #16
    5084:	13cbb00f 	bicne	r11, r11, #15
    5088:	e084200a 	add	r2, r4, r10
    508c:	e1a00006 	mov	r0, r6
    5090:	e1a0100b 	mov	r1, r11
    5094:	e58d2004 	str	r2, [sp, #4]
    5098:	eb00058c 	bl	66d0 <_sbrk_r>
    509c:	e3700001 	cmn	r0, #1
    50a0:	e1a08000 	mov	r8, r0
    50a4:	e59d2004 	ldr	r2, [sp, #4]
    50a8:	0a0000e2 	beq	5438 <_malloc_r+0x674>
    50ac:	e1520000 	cmp	r2, r0
    50b0:	8a0000bf 	bhi	53b4 <_malloc_r+0x5f0>
    50b4:	e5993004 	ldr	r3, [r9, #4]
    50b8:	e1520008 	cmp	r2, r8
    50bc:	e08b3003 	add	r3, r11, r3
    50c0:	e5893004 	str	r3, [r9, #4]
    50c4:	0a0000df 	beq	5448 <_malloc_r+0x684>
    50c8:	e5971408 	ldr	r1, [r7, #1032]	; 0x408
    50cc:	e3710001 	cmn	r1, #1
    50d0:	10622008 	rsbne	r2, r2, r8
    50d4:	059f33f8 	ldreq	r3, [pc, #1016]	; 54d4 <_malloc_r+0x710>
    50d8:	10833002 	addne	r3, r3, r2
    50dc:	05838408 	streq	r8, [r3, #1032]	; 0x408
    50e0:	15893004 	strne	r3, [r9, #4]
    50e4:	e2183007 	ands	r3, r8, #7
    50e8:	12632008 	rsbne	r2, r3, #8
    50ec:	10888002 	addne	r8, r8, r2
    50f0:	12633a01 	rsbne	r3, r3, #4096	; 0x1000
    50f4:	12832008 	addne	r2, r3, #8
    50f8:	e088300b 	add	r3, r8, r11
    50fc:	03a02a01 	moveq	r2, #4096	; 0x1000
    5100:	e1a03a03 	lsl	r3, r3, #20
    5104:	e042ba23 	sub	r11, r2, r3, lsr #20
    5108:	e1a0100b 	mov	r1, r11
    510c:	e1a00006 	mov	r0, r6
    5110:	eb00056e 	bl	66d0 <_sbrk_r>
    5114:	e3700001 	cmn	r0, #1
    5118:	10682000 	rsbne	r2, r8, r0
    511c:	e5993004 	ldr	r3, [r9, #4]
    5120:	108b2002 	addne	r2, r11, r2
    5124:	03a0b000 	moveq	r11, #0
    5128:	13822001 	orrne	r2, r2, #1
    512c:	03a02001 	moveq	r2, #1
    5130:	e08b3003 	add	r3, r11, r3
    5134:	e1540007 	cmp	r4, r7
    5138:	e5893004 	str	r3, [r9, #4]
    513c:	e5878008 	str	r8, [r7, #8]
    5140:	e5882004 	str	r2, [r8, #4]
    5144:	0a00000d 	beq	5180 <_malloc_r+0x3bc>
    5148:	e35a000f 	cmp	r10, #15
    514c:	9a0000ac 	bls	5404 <_malloc_r+0x640>
    5150:	e594c004 	ldr	r12, [r4, #4]
    5154:	e24a200c 	sub	r2, r10, #12
    5158:	e3c22007 	bic	r2, r2, #7
    515c:	e20cc001 	and	r12, r12, #1
    5160:	e0841002 	add	r1, r4, r2
    5164:	e3a00005 	mov	r0, #5
    5168:	e182c00c 	orr	r12, r2, r12
    516c:	e352000f 	cmp	r2, #15
    5170:	e584c004 	str	r12, [r4, #4]
    5174:	e5810004 	str	r0, [r1, #4]
    5178:	e5810008 	str	r0, [r1, #8]
    517c:	8a0000b8 	bhi	5464 <_malloc_r+0x6a0>
    5180:	e599202c 	ldr	r2, [r9, #44]	; 0x2c
    5184:	e1530002 	cmp	r3, r2
    5188:	859f2348 	ldrhi	r2, [pc, #840]	; 54d8 <_malloc_r+0x714>
    518c:	8582302c 	strhi	r3, [r2, #44]	; 0x2c
    5190:	e5992030 	ldr	r2, [r9, #48]	; 0x30
    5194:	e5974008 	ldr	r4, [r7, #8]
    5198:	e1530002 	cmp	r3, r2
    519c:	95943004 	ldrls	r3, [r4, #4]
    51a0:	85942004 	ldrhi	r2, [r4, #4]
    51a4:	859f132c 	ldrhi	r1, [pc, #812]	; 54d8 <_malloc_r+0x714>
    51a8:	93c33003 	bicls	r3, r3, #3
    51ac:	85813030 	strhi	r3, [r1, #48]	; 0x30
    51b0:	83c23003 	bichi	r3, r2, #3
    51b4:	e1550003 	cmp	r5, r3
    51b8:	e0653003 	rsb	r3, r5, r3
    51bc:	8a000001 	bhi	51c8 <_malloc_r+0x404>
    51c0:	e353000f 	cmp	r3, #15
    51c4:	ca000003 	bgt	51d8 <_malloc_r+0x414>
    51c8:	e1a00006 	mov	r0, r6
    51cc:	eb0001db 	bl	5940 <__malloc_unlock>
    51d0:	e3a04000 	mov	r4, #0
    51d4:	eaffff21 	b	4e60 <_malloc_r+0x9c>
    51d8:	e0842005 	add	r2, r4, r5
    51dc:	e3833001 	orr	r3, r3, #1
    51e0:	e3855001 	orr	r5, r5, #1
    51e4:	e5845004 	str	r5, [r4, #4]
    51e8:	e1a00006 	mov	r0, r6
    51ec:	e5823004 	str	r3, [r2, #4]
    51f0:	e5872008 	str	r2, [r7, #8]
    51f4:	e2844008 	add	r4, r4, #8
    51f8:	eb0001d0 	bl	5940 <__malloc_unlock>
    51fc:	eaffff17 	b	4e60 <_malloc_r+0x9c>
    5200:	e0842002 	add	r2, r4, r2
    5204:	e5920004 	ldr	r0, [r2, #4]
    5208:	e2841008 	add	r1, r4, #8
    520c:	e891000a 	ldm	r1, {r1, r3}
    5210:	e3800001 	orr	r0, r0, #1
    5214:	e5820004 	str	r0, [r2, #4]
    5218:	e581300c 	str	r3, [r1, #12]
    521c:	e5831008 	str	r1, [r3, #8]
    5220:	e1a00006 	mov	r0, r6
    5224:	eb0001c5 	bl	5940 <__malloc_unlock>
    5228:	e2844008 	add	r4, r4, #8
    522c:	eaffff0b 	b	4e60 <_malloc_r+0x9c>
    5230:	e35e0014 	cmp	lr, #20
    5234:	928ee05b 	addls	lr, lr, #91	; 0x5b
    5238:	91a0108e 	lslls	r1, lr, #1
    523c:	9affff0f 	bls	4e80 <_malloc_r+0xbc>
    5240:	e35e0054 	cmp	lr, #84	; 0x54
    5244:	8a000061 	bhi	53d0 <_malloc_r+0x60c>
    5248:	e1a0e625 	lsr	lr, r5, #12
    524c:	e28ee06e 	add	lr, lr, #110	; 0x6e
    5250:	e1a0108e 	lsl	r1, lr, #1
    5254:	eaffff09 	b	4e80 <_malloc_r+0xbc>
    5258:	e1a034a2 	lsr	r3, r2, #9
    525c:	e3530004 	cmp	r3, #4
    5260:	9a00004f 	bls	53a4 <_malloc_r+0x5e0>
    5264:	e3530014 	cmp	r3, #20
    5268:	9283a05b 	addls	r10, r3, #91	; 0x5b
    526c:	91a0008a 	lslls	r0, r10, #1
    5270:	9a000004 	bls	5288 <_malloc_r+0x4c4>
    5274:	e3530054 	cmp	r3, #84	; 0x54
    5278:	8a00007f 	bhi	547c <_malloc_r+0x6b8>
    527c:	e1a0a622 	lsr	r10, r2, #12
    5280:	e28aa06e 	add	r10, r10, #110	; 0x6e
    5284:	e1a0008a 	lsl	r0, r10, #1
    5288:	e0870100 	add	r0, r7, r0, lsl #2
    528c:	e5903008 	ldr	r3, [r0, #8]
    5290:	e1530000 	cmp	r3, r0
    5294:	e59fc238 	ldr	r12, [pc, #568]	; 54d4 <_malloc_r+0x710>
    5298:	0a000052 	beq	53e8 <_malloc_r+0x624>
    529c:	e5931004 	ldr	r1, [r3, #4]
    52a0:	e3c11003 	bic	r1, r1, #3
    52a4:	e1520001 	cmp	r2, r1
    52a8:	2a000002 	bcs	52b8 <_malloc_r+0x4f4>
    52ac:	e5933008 	ldr	r3, [r3, #8]
    52b0:	e1500003 	cmp	r0, r3
    52b4:	1afffff8 	bne	529c <_malloc_r+0x4d8>
    52b8:	e593200c 	ldr	r2, [r3, #12]
    52bc:	e5971004 	ldr	r1, [r7, #4]
    52c0:	e584200c 	str	r2, [r4, #12]
    52c4:	e5843008 	str	r3, [r4, #8]
    52c8:	e583400c 	str	r4, [r3, #12]
    52cc:	e5824008 	str	r4, [r2, #8]
    52d0:	eaffff19 	b	4f3c <_malloc_r+0x178>
    52d4:	e0842005 	add	r2, r4, r5
    52d8:	e3810001 	orr	r0, r1, #1
    52dc:	e3855001 	orr	r5, r5, #1
    52e0:	e5845004 	str	r5, [r4, #4]
    52e4:	e5832014 	str	r2, [r3, #20]
    52e8:	e5832010 	str	r2, [r3, #16]
    52ec:	e582800c 	str	r8, [r2, #12]
    52f0:	e9820101 	stmib	r2, {r0, r8}
    52f4:	e7821001 	str	r1, [r2, r1]
    52f8:	e1a00006 	mov	r0, r6
    52fc:	eb00018f 	bl	5940 <__malloc_unlock>
    5300:	e2844008 	add	r4, r4, #8
    5304:	eafffed5 	b	4e60 <_malloc_r+0x9c>
    5308:	e2844001 	add	r4, r4, #1
    530c:	e3140003 	tst	r4, #3
    5310:	e28cc008 	add	r12, r12, #8
    5314:	1affff1b 	bne	4f88 <_malloc_r+0x1c4>
    5318:	e31e0003 	tst	lr, #3
    531c:	e24a3008 	sub	r3, r10, #8
    5320:	0a000062 	beq	54b0 <_malloc_r+0x6ec>
    5324:	e59aa000 	ldr	r10, [r10]
    5328:	e15a0003 	cmp	r10, r3
    532c:	e24ee001 	sub	lr, lr, #1
    5330:	0afffff8 	beq	5318 <_malloc_r+0x554>
    5334:	e5973004 	ldr	r3, [r7, #4]
    5338:	e1a00080 	lsl	r0, r0, #1
    533c:	e1500003 	cmp	r0, r3
    5340:	8affff3e 	bhi	5040 <_malloc_r+0x27c>
    5344:	e3500000 	cmp	r0, #0
    5348:	0affff3c 	beq	5040 <_malloc_r+0x27c>
    534c:	e1130000 	tst	r3, r0
    5350:	0a00005a 	beq	54c0 <_malloc_r+0x6fc>
    5354:	e1a0e004 	mov	lr, r4
    5358:	eaffff07 	b	4f7c <_malloc_r+0x1b8>
    535c:	e2843008 	add	r3, r4, #8
    5360:	e5944014 	ldr	r4, [r4, #20]
    5364:	e1530004 	cmp	r3, r4
    5368:	028ee002 	addeq	lr, lr, #2
    536c:	0afffed5 	beq	4ec8 <_malloc_r+0x104>
    5370:	eafffead 	b	4e2c <_malloc_r+0x68>
    5374:	e0831001 	add	r1, r3, r1
    5378:	e5910004 	ldr	r0, [r1, #4]
    537c:	e1a04003 	mov	r4, r3
    5380:	e5b42008 	ldr	r2, [r4, #8]!
    5384:	e593300c 	ldr	r3, [r3, #12]
    5388:	e3800001 	orr	r0, r0, #1
    538c:	e5810004 	str	r0, [r1, #4]
    5390:	e582300c 	str	r3, [r2, #12]
    5394:	e5832008 	str	r2, [r3, #8]
    5398:	e1a00006 	mov	r0, r6
    539c:	eb000167 	bl	5940 <__malloc_unlock>
    53a0:	eafffeae 	b	4e60 <_malloc_r+0x9c>
    53a4:	e1a0a322 	lsr	r10, r2, #6
    53a8:	e28aa038 	add	r10, r10, #56	; 0x38
    53ac:	e1a0008a 	lsl	r0, r10, #1
    53b0:	eaffffb4 	b	5288 <_malloc_r+0x4c4>
    53b4:	e1540007 	cmp	r4, r7
    53b8:	0affff3d 	beq	50b4 <_malloc_r+0x2f0>
    53bc:	e59f3110 	ldr	r3, [pc, #272]	; 54d4 <_malloc_r+0x710>
    53c0:	e5934008 	ldr	r4, [r3, #8]
    53c4:	e5943004 	ldr	r3, [r4, #4]
    53c8:	e3c33003 	bic	r3, r3, #3
    53cc:	eaffff78 	b	51b4 <_malloc_r+0x3f0>
    53d0:	e35e0f55 	cmp	lr, #340	; 0x154
    53d4:	8a00000f 	bhi	5418 <_malloc_r+0x654>
    53d8:	e1a0e7a5 	lsr	lr, r5, #15
    53dc:	e28ee077 	add	lr, lr, #119	; 0x77
    53e0:	e1a0108e 	lsl	r1, lr, #1
    53e4:	eafffea5 	b	4e80 <_malloc_r+0xbc>
    53e8:	e59c2004 	ldr	r2, [r12, #4]
    53ec:	e1a0a14a 	asr	r10, r10, #2
    53f0:	e3a01001 	mov	r1, #1
    53f4:	e1821a11 	orr	r1, r2, r1, lsl r10
    53f8:	e1a02003 	mov	r2, r3
    53fc:	e58c1004 	str	r1, [r12, #4]
    5400:	eaffffae 	b	52c0 <_malloc_r+0x4fc>
    5404:	e3a03001 	mov	r3, #1
    5408:	e5883004 	str	r3, [r8, #4]
    540c:	e1a04008 	mov	r4, r8
    5410:	e3a03000 	mov	r3, #0
    5414:	eaffff66 	b	51b4 <_malloc_r+0x3f0>
    5418:	e59f30bc 	ldr	r3, [pc, #188]	; 54dc <_malloc_r+0x718>
    541c:	e15e0003 	cmp	lr, r3
    5420:	91a0e925 	lsrls	lr, r5, #18
    5424:	928ee07c 	addls	lr, lr, #124	; 0x7c
    5428:	91a0108e 	lslls	r1, lr, #1
    542c:	83a010fc 	movhi	r1, #252	; 0xfc
    5430:	83a0e07e 	movhi	lr, #126	; 0x7e
    5434:	eafffe91 	b	4e80 <_malloc_r+0xbc>
    5438:	e5974008 	ldr	r4, [r7, #8]
    543c:	e5943004 	ldr	r3, [r4, #4]
    5440:	e3c33003 	bic	r3, r3, #3
    5444:	eaffff5a 	b	51b4 <_malloc_r+0x3f0>
    5448:	e1b01a02 	lsls	r1, r2, #20
    544c:	1affff1d 	bne	50c8 <_malloc_r+0x304>
    5450:	e5972008 	ldr	r2, [r7, #8]
    5454:	e08b100a 	add	r1, r11, r10
    5458:	e3811001 	orr	r1, r1, #1
    545c:	e5821004 	str	r1, [r2, #4]
    5460:	eaffff46 	b	5180 <_malloc_r+0x3bc>
    5464:	e1a00006 	mov	r0, r6
    5468:	e2841008 	add	r1, r4, #8
    546c:	ebfffce9 	bl	4818 <_free_r>
    5470:	e59f3060 	ldr	r3, [pc, #96]	; 54d8 <_malloc_r+0x714>
    5474:	e5933004 	ldr	r3, [r3, #4]
    5478:	eaffff40 	b	5180 <_malloc_r+0x3bc>
    547c:	e3530f55 	cmp	r3, #340	; 0x154
    5480:	91a0a7a2 	lsrls	r10, r2, #15
    5484:	928aa077 	addls	r10, r10, #119	; 0x77
    5488:	91a0008a 	lslls	r0, r10, #1
    548c:	9affff7d 	bls	5288 <_malloc_r+0x4c4>
    5490:	e59f1044 	ldr	r1, [pc, #68]	; 54dc <_malloc_r+0x718>
    5494:	e1530001 	cmp	r3, r1
    5498:	91a0a922 	lsrls	r10, r2, #18
    549c:	928aa07c 	addls	r10, r10, #124	; 0x7c
    54a0:	91a0008a 	lslls	r0, r10, #1
    54a4:	83a000fc 	movhi	r0, #252	; 0xfc
    54a8:	83a0a07e 	movhi	r10, #126	; 0x7e
    54ac:	eaffff75 	b	5288 <_malloc_r+0x4c4>
    54b0:	e5973004 	ldr	r3, [r7, #4]
    54b4:	e1c33000 	bic	r3, r3, r0
    54b8:	e5873004 	str	r3, [r7, #4]
    54bc:	eaffff9d 	b	5338 <_malloc_r+0x574>
    54c0:	e1a00080 	lsl	r0, r0, #1
    54c4:	e1130000 	tst	r3, r0
    54c8:	e2844004 	add	r4, r4, #4
    54cc:	1affffa0 	bne	5354 <_malloc_r+0x590>
    54d0:	eafffffa 	b	54c0 <_malloc_r+0x6fc>
    54d4:	0000b61c 	.word	0x0000b61c
    54d8:	0000ba60 	.word	0x0000ba60
    54dc:	00000554 	.word	0x00000554

000054e0 <memchr>:
    54e0:	e3100003 	tst	r0, #3
    54e4:	e92d0070 	push	{r4, r5, r6}
    54e8:	e20110ff 	and	r1, r1, #255	; 0xff
    54ec:	0a00003c 	beq	55e4 <memchr+0x104>
    54f0:	e3520000 	cmp	r2, #0
    54f4:	e242c001 	sub	r12, r2, #1
    54f8:	0a00003b 	beq	55ec <memchr+0x10c>
    54fc:	e5d03000 	ldrb	r3, [r0]
    5500:	e1530001 	cmp	r3, r1
    5504:	0a00001f 	beq	5588 <memchr+0xa8>
    5508:	e2803001 	add	r3, r0, #1
    550c:	ea000006 	b	552c <memchr+0x4c>
    5510:	e35c0000 	cmp	r12, #0
    5514:	0a00001d 	beq	5590 <memchr+0xb0>
    5518:	e5d02000 	ldrb	r2, [r0]
    551c:	e1520001 	cmp	r2, r1
    5520:	e2833001 	add	r3, r3, #1
    5524:	e24cc001 	sub	r12, r12, #1
    5528:	0a000016 	beq	5588 <memchr+0xa8>
    552c:	e3130003 	tst	r3, #3
    5530:	e1a00003 	mov	r0, r3
    5534:	1afffff5 	bne	5510 <memchr+0x30>
    5538:	e35c0003 	cmp	r12, #3
    553c:	8a000015 	bhi	5598 <memchr+0xb8>
    5540:	e35c0000 	cmp	r12, #0
    5544:	e24c4001 	sub	r4, r12, #1
    5548:	0a000010 	beq	5590 <memchr+0xb0>
    554c:	e5d03000 	ldrb	r3, [r0]
    5550:	e1530001 	cmp	r3, r1
    5554:	0a00000b 	beq	5588 <memchr+0xa8>
    5558:	e2802001 	add	r2, r0, #1
    555c:	e3a03000 	mov	r3, #0
    5560:	ea000004 	b	5578 <memchr+0x98>
    5564:	e5d0c000 	ldrb	r12, [r0]
    5568:	e15c0001 	cmp	r12, r1
    556c:	e2822001 	add	r2, r2, #1
    5570:	e2833001 	add	r3, r3, #1
    5574:	0a000003 	beq	5588 <memchr+0xa8>
    5578:	e1540003 	cmp	r4, r3
    557c:	e1a00002 	mov	r0, r2
    5580:	1afffff7 	bne	5564 <memchr+0x84>
    5584:	e3a00000 	mov	r0, #0
    5588:	e8bd0070 	pop	{r4, r5, r6}
    558c:	e12fff1e 	bx	lr
    5590:	e1a0000c 	mov	r0, r12
    5594:	eafffffb 	b	5588 <memchr+0xa8>
    5598:	e1816401 	orr	r6, r1, r1, lsl #8
    559c:	e1866806 	orr	r6, r6, r6, lsl #16
    55a0:	e5903000 	ldr	r3, [r0]
    55a4:	e59f4048 	ldr	r4, [pc, #72]	; 55f4 <memchr+0x114>
    55a8:	e0263003 	eor	r3, r6, r3
    55ac:	e0834004 	add	r4, r3, r4
    55b0:	e59f2040 	ldr	r2, [pc, #64]	; 55f8 <memchr+0x118>
    55b4:	e1c44003 	bic	r4, r4, r3
    55b8:	e0042002 	and	r2, r4, r2
    55bc:	e3520000 	cmp	r2, #0
    55c0:	e1a05000 	mov	r5, r0
    55c4:	e2800004 	add	r0, r0, #4
    55c8:	1a000003 	bne	55dc <memchr+0xfc>
    55cc:	e24cc004 	sub	r12, r12, #4
    55d0:	e35c0003 	cmp	r12, #3
    55d4:	8afffff1 	bhi	55a0 <memchr+0xc0>
    55d8:	eaffffd8 	b	5540 <memchr+0x60>
    55dc:	e1a00005 	mov	r0, r5
    55e0:	eaffffd6 	b	5540 <memchr+0x60>
    55e4:	e1a0c002 	mov	r12, r2
    55e8:	eaffffd2 	b	5538 <memchr+0x58>
    55ec:	e1a00002 	mov	r0, r2
    55f0:	eaffffe4 	b	5588 <memchr+0xa8>
    55f4:	fefefeff 	.word	0xfefefeff
    55f8:	80808080 	.word	0x80808080

000055fc <memcpy>:
    55fc:	e3520003 	cmp	r2, #3
    5600:	e92d01f0 	push	{r4, r5, r6, r7, r8}
    5604:	8a000009 	bhi	5630 <memcpy+0x34>
    5608:	e3520000 	cmp	r2, #0
    560c:	0a000005 	beq	5628 <memcpy+0x2c>
    5610:	e3a03000 	mov	r3, #0
    5614:	e7d1c003 	ldrb	r12, [r1, r3]
    5618:	e7c0c003 	strb	r12, [r0, r3]
    561c:	e2833001 	add	r3, r3, #1
    5620:	e1530002 	cmp	r3, r2
    5624:	1afffffa 	bne	5614 <memcpy+0x18>
    5628:	e8bd01f0 	pop	{r4, r5, r6, r7, r8}
    562c:	e12fff1e 	bx	lr
    5630:	e3100003 	tst	r0, #3
    5634:	e0802002 	add	r2, r0, r2
    5638:	0a00000b 	beq	566c <memcpy+0x70>
    563c:	e280c001 	add	r12, r0, #1
    5640:	e2814001 	add	r4, r1, #1
    5644:	e20c3003 	and	r3, r12, #3
    5648:	e5545001 	ldrb	r5, [r4, #-1]
    564c:	e3530000 	cmp	r3, #0
    5650:	e1a01004 	mov	r1, r4
    5654:	e1a0300c 	mov	r3, r12
    5658:	e54c5001 	strb	r5, [r12, #-1]
    565c:	e2844001 	add	r4, r4, #1
    5660:	e28cc001 	add	r12, r12, #1
    5664:	1afffff6 	bne	5644 <memcpy+0x48>
    5668:	ea000000 	b	5670 <memcpy+0x74>
    566c:	e1a03000 	mov	r3, r0
    5670:	e211c003 	ands	r12, r1, #3
    5674:	1a00004f 	bne	57b8 <memcpy+0x1bc>
    5678:	e063c002 	rsb	r12, r3, r2
    567c:	e35c003f 	cmp	r12, #63	; 0x3f
    5680:	da000024 	ble	5718 <memcpy+0x11c>
    5684:	e591c000 	ldr	r12, [r1]
    5688:	e583c000 	str	r12, [r3]
    568c:	e591c004 	ldr	r12, [r1, #4]
    5690:	e583c004 	str	r12, [r3, #4]
    5694:	e591c008 	ldr	r12, [r1, #8]
    5698:	e583c008 	str	r12, [r3, #8]
    569c:	e591c00c 	ldr	r12, [r1, #12]
    56a0:	e583c00c 	str	r12, [r3, #12]
    56a4:	e591c010 	ldr	r12, [r1, #16]
    56a8:	e583c010 	str	r12, [r3, #16]
    56ac:	e591c014 	ldr	r12, [r1, #20]
    56b0:	e583c014 	str	r12, [r3, #20]
    56b4:	e591c018 	ldr	r12, [r1, #24]
    56b8:	e583c018 	str	r12, [r3, #24]
    56bc:	e591c01c 	ldr	r12, [r1, #28]
    56c0:	e583c01c 	str	r12, [r3, #28]
    56c4:	e591c020 	ldr	r12, [r1, #32]
    56c8:	e583c020 	str	r12, [r3, #32]
    56cc:	e591c024 	ldr	r12, [r1, #36]	; 0x24
    56d0:	e583c024 	str	r12, [r3, #36]	; 0x24
    56d4:	e591c028 	ldr	r12, [r1, #40]	; 0x28
    56d8:	e583c028 	str	r12, [r3, #40]	; 0x28
    56dc:	e591c02c 	ldr	r12, [r1, #44]	; 0x2c
    56e0:	e583c02c 	str	r12, [r3, #44]	; 0x2c
    56e4:	e591c030 	ldr	r12, [r1, #48]	; 0x30
    56e8:	e583c030 	str	r12, [r3, #48]	; 0x30
    56ec:	e591c034 	ldr	r12, [r1, #52]	; 0x34
    56f0:	e583c034 	str	r12, [r3, #52]	; 0x34
    56f4:	e591c038 	ldr	r12, [r1, #56]	; 0x38
    56f8:	e583c038 	str	r12, [r3, #56]	; 0x38
    56fc:	e591c03c 	ldr	r12, [r1, #60]	; 0x3c
    5700:	e2833040 	add	r3, r3, #64	; 0x40
    5704:	e503c004 	str	r12, [r3, #-4]
    5708:	e063c002 	rsb	r12, r3, r2
    570c:	e35c003f 	cmp	r12, #63	; 0x3f
    5710:	e2811040 	add	r1, r1, #64	; 0x40
    5714:	caffffda 	bgt	5684 <memcpy+0x88>
    5718:	e35c000f 	cmp	r12, #15
    571c:	da00000c 	ble	5754 <memcpy+0x158>
    5720:	e591c000 	ldr	r12, [r1]
    5724:	e583c000 	str	r12, [r3]
    5728:	e591c004 	ldr	r12, [r1, #4]
    572c:	e583c004 	str	r12, [r3, #4]
    5730:	e591c008 	ldr	r12, [r1, #8]
    5734:	e583c008 	str	r12, [r3, #8]
    5738:	e591c00c 	ldr	r12, [r1, #12]
    573c:	e2833010 	add	r3, r3, #16
    5740:	e503c004 	str	r12, [r3, #-4]
    5744:	e063c002 	rsb	r12, r3, r2
    5748:	e35c000f 	cmp	r12, #15
    574c:	e2811010 	add	r1, r1, #16
    5750:	cafffff2 	bgt	5720 <memcpy+0x124>
    5754:	e35c0003 	cmp	r12, #3
    5758:	da00000a 	ble	5788 <memcpy+0x18c>
    575c:	e283c004 	add	r12, r3, #4
    5760:	e2814004 	add	r4, r1, #4
    5764:	e06c3002 	rsb	r3, r12, r2
    5768:	e5145004 	ldr	r5, [r4, #-4]
    576c:	e3530003 	cmp	r3, #3
    5770:	e1a01004 	mov	r1, r4
    5774:	e1a0300c 	mov	r3, r12
    5778:	e50c5004 	str	r5, [r12, #-4]
    577c:	e2844004 	add	r4, r4, #4
    5780:	e28cc004 	add	r12, r12, #4
    5784:	cafffff6 	bgt	5764 <memcpy+0x168>
    5788:	e1520003 	cmp	r2, r3
    578c:	82833001 	addhi	r3, r3, #1
    5790:	82811001 	addhi	r1, r1, #1
    5794:	82822001 	addhi	r2, r2, #1
    5798:	9affffa2 	bls	5628 <memcpy+0x2c>
    579c:	e551c001 	ldrb	r12, [r1, #-1]
    57a0:	e2833001 	add	r3, r3, #1
    57a4:	e1530002 	cmp	r3, r2
    57a8:	e543c002 	strb	r12, [r3, #-2]
    57ac:	e2811001 	add	r1, r1, #1
    57b0:	1afffff9 	bne	579c <memcpy+0x1a0>
    57b4:	eaffff9b 	b	5628 <memcpy+0x2c>
    57b8:	e0635002 	rsb	r5, r3, r2
    57bc:	e06c4001 	rsb	r4, r12, r1
    57c0:	e3550003 	cmp	r5, #3
    57c4:	e5945000 	ldr	r5, [r4]
    57c8:	daffffee 	ble	5788 <memcpy+0x18c>
    57cc:	e26c6004 	rsb	r6, r12, #4
    57d0:	e1a0718c 	lsl	r7, r12, #3
    57d4:	e1a06186 	lsl	r6, r6, #3
    57d8:	e283c004 	add	r12, r3, #4
    57dc:	e1a08735 	lsr	r8, r5, r7
    57e0:	e5b45004 	ldr	r5, [r4, #4]!
    57e4:	e1888615 	orr	r8, r8, r5, lsl r6
    57e8:	e06c3002 	rsb	r3, r12, r2
    57ec:	e3530003 	cmp	r3, #3
    57f0:	e50c8004 	str	r8, [r12, #-4]
    57f4:	e1a0300c 	mov	r3, r12
    57f8:	e2811004 	add	r1, r1, #4
    57fc:	e28cc004 	add	r12, r12, #4
    5800:	cafffff5 	bgt	57dc <memcpy+0x1e0>
    5804:	eaffffdf 	b	5788 <memcpy+0x18c>

00005808 <memset>:
    5808:	e3520003 	cmp	r2, #3
    580c:	e52d4004 	push	{r4}		; (str r4, [sp, #-4]!)
    5810:	e20110ff 	and	r1, r1, #255	; 0xff
    5814:	8a000008 	bhi	583c <memset+0x34>
    5818:	e3520000 	cmp	r2, #0
    581c:	0a000004 	beq	5834 <memset+0x2c>
    5820:	e1a03000 	mov	r3, r0
    5824:	e0822000 	add	r2, r2, r0
    5828:	e4c31001 	strb	r1, [r3], #1
    582c:	e1530002 	cmp	r3, r2
    5830:	1afffffc 	bne	5828 <memset+0x20>
    5834:	e8bd0010 	ldmfd	sp!, {r4}
    5838:	e12fff1e 	bx	lr
    583c:	e3100003 	tst	r0, #3
    5840:	e0802002 	add	r2, r0, r2
    5844:	0a000007 	beq	5868 <memset+0x60>
    5848:	e280c001 	add	r12, r0, #1
    584c:	e20c3003 	and	r3, r12, #3
    5850:	e3530000 	cmp	r3, #0
    5854:	e54c1001 	strb	r1, [r12, #-1]
    5858:	e1a0300c 	mov	r3, r12
    585c:	e28cc001 	add	r12, r12, #1
    5860:	1afffff9 	bne	584c <memset+0x44>
    5864:	ea000000 	b	586c <memset+0x64>
    5868:	e1a03000 	mov	r3, r0
    586c:	e0634002 	rsb	r4, r3, r2
    5870:	e081c401 	add	r12, r1, r1, lsl #8
    5874:	e354003f 	cmp	r4, #63	; 0x3f
    5878:	e08cc80c 	add	r12, r12, r12, lsl #16
    587c:	da00001a 	ble	58ec <memset+0xe4>
    5880:	e583c000 	str	r12, [r3]
    5884:	e583c004 	str	r12, [r3, #4]
    5888:	e583c008 	str	r12, [r3, #8]
    588c:	e583c00c 	str	r12, [r3, #12]
    5890:	e583c010 	str	r12, [r3, #16]
    5894:	e583c014 	str	r12, [r3, #20]
    5898:	e583c018 	str	r12, [r3, #24]
    589c:	e583c01c 	str	r12, [r3, #28]
    58a0:	e583c020 	str	r12, [r3, #32]
    58a4:	e583c024 	str	r12, [r3, #36]	; 0x24
    58a8:	e583c028 	str	r12, [r3, #40]	; 0x28
    58ac:	e583c02c 	str	r12, [r3, #44]	; 0x2c
    58b0:	e583c030 	str	r12, [r3, #48]	; 0x30
    58b4:	e583c034 	str	r12, [r3, #52]	; 0x34
    58b8:	e583c038 	str	r12, [r3, #56]	; 0x38
    58bc:	e583c03c 	str	r12, [r3, #60]	; 0x3c
    58c0:	e2833040 	add	r3, r3, #64	; 0x40
    58c4:	e0634002 	rsb	r4, r3, r2
    58c8:	e354003f 	cmp	r4, #63	; 0x3f
    58cc:	caffffeb 	bgt	5880 <memset+0x78>
    58d0:	ea000005 	b	58ec <memset+0xe4>
    58d4:	e583c000 	str	r12, [r3]
    58d8:	e583c004 	str	r12, [r3, #4]
    58dc:	e583c008 	str	r12, [r3, #8]
    58e0:	e583c00c 	str	r12, [r3, #12]
    58e4:	e2833010 	add	r3, r3, #16
    58e8:	e0634002 	rsb	r4, r3, r2
    58ec:	e354000f 	cmp	r4, #15
    58f0:	cafffff7 	bgt	58d4 <memset+0xcc>
    58f4:	e3540003 	cmp	r4, #3
    58f8:	da000006 	ble	5918 <memset+0x110>
    58fc:	e2834004 	add	r4, r3, #4
    5900:	e0643002 	rsb	r3, r4, r2
    5904:	e3530003 	cmp	r3, #3
    5908:	e504c004 	str	r12, [r4, #-4]
    590c:	e1a03004 	mov	r3, r4
    5910:	e2844004 	add	r4, r4, #4
    5914:	cafffff9 	bgt	5900 <memset+0xf8>
    5918:	e1520003 	cmp	r2, r3
    591c:	9affffc4 	bls	5834 <memset+0x2c>
    5920:	e2833001 	add	r3, r3, #1
    5924:	e2822001 	add	r2, r2, #1
    5928:	e5431001 	strb	r1, [r3, #-1]
    592c:	e2833001 	add	r3, r3, #1
    5930:	e1530002 	cmp	r3, r2
    5934:	1afffffb 	bne	5928 <memset+0x120>
    5938:	eaffffbd 	b	5834 <memset+0x2c>

0000593c <__malloc_lock>:
    593c:	e12fff1e 	bx	lr

00005940 <__malloc_unlock>:
    5940:	e12fff1e 	bx	lr

00005944 <_Balloc>:
    5944:	e590304c 	ldr	r3, [r0, #76]	; 0x4c
    5948:	e3530000 	cmp	r3, #0
    594c:	e92d4070 	push	{r4, r5, r6, lr}
    5950:	e1a05000 	mov	r5, r0
    5954:	e1a04001 	mov	r4, r1
    5958:	0a000009 	beq	5984 <_Balloc+0x40>
    595c:	e7930104 	ldr	r0, [r3, r4, lsl #2]
    5960:	e3500000 	cmp	r0, #0
    5964:	0a00000f 	beq	59a8 <_Balloc+0x64>
    5968:	e5902000 	ldr	r2, [r0]
    596c:	e7832104 	str	r2, [r3, r4, lsl #2]
    5970:	e3a03000 	mov	r3, #0
    5974:	e5803010 	str	r3, [r0, #16]
    5978:	e580300c 	str	r3, [r0, #12]
    597c:	e8bd4070 	pop	{r4, r5, r6, lr}
    5980:	e12fff1e 	bx	lr
    5984:	e3a01004 	mov	r1, #4
    5988:	e3a02021 	mov	r2, #33	; 0x21
    598c:	eb0008fc 	bl	7d84 <_calloc_r>
    5990:	e3500000 	cmp	r0, #0
    5994:	e1a03000 	mov	r3, r0
    5998:	e585004c 	str	r0, [r5, #76]	; 0x4c
    599c:	1affffee 	bne	595c <_Balloc+0x18>
    59a0:	e3a00000 	mov	r0, #0
    59a4:	eafffff4 	b	597c <_Balloc+0x38>
    59a8:	e3a01001 	mov	r1, #1
    59ac:	e1a06411 	lsl	r6, r1, r4
    59b0:	e2862005 	add	r2, r6, #5
    59b4:	e1a00005 	mov	r0, r5
    59b8:	e1a02102 	lsl	r2, r2, #2
    59bc:	eb0008f0 	bl	7d84 <_calloc_r>
    59c0:	e3500000 	cmp	r0, #0
    59c4:	0afffff5 	beq	59a0 <_Balloc+0x5c>
    59c8:	e9800050 	stmib	r0, {r4, r6}
    59cc:	eaffffe7 	b	5970 <_Balloc+0x2c>

000059d0 <_Bfree>:
    59d0:	e3510000 	cmp	r1, #0
    59d4:	1590304c 	ldrne	r3, [r0, #76]	; 0x4c
    59d8:	15912004 	ldrne	r2, [r1, #4]
    59dc:	17930102 	ldrne	r0, [r3, r2, lsl #2]
    59e0:	15810000 	strne	r0, [r1]
    59e4:	17831102 	strne	r1, [r3, r2, lsl #2]
    59e8:	e12fff1e 	bx	lr

000059ec <__multadd>:
    59ec:	e92d45f0 	push	{r4, r5, r6, r7, r8, r10, lr}
    59f0:	e5917010 	ldr	r7, [r1, #16]
    59f4:	e24dd00c 	sub	sp, sp, #12
    59f8:	e1a08001 	mov	r8, r1
    59fc:	e1a0a000 	mov	r10, r0
    5a00:	e2814014 	add	r4, r1, #20
    5a04:	e3a0c000 	mov	r12, #0
    5a08:	e5946000 	ldr	r6, [r4]
    5a0c:	e1a05806 	lsl	r5, r6, #16
    5a10:	e1a05825 	lsr	r5, r5, #16
    5a14:	e0253592 	mla	r5, r2, r5, r3
    5a18:	e1a03826 	lsr	r3, r6, #16
    5a1c:	e0030392 	mul	r3, r2, r3
    5a20:	e1a01805 	lsl	r1, r5, #16
    5a24:	e0833825 	add	r3, r3, r5, lsr #16
    5a28:	e1a01821 	lsr	r1, r1, #16
    5a2c:	e28cc001 	add	r12, r12, #1
    5a30:	e0811803 	add	r1, r1, r3, lsl #16
    5a34:	e157000c 	cmp	r7, r12
    5a38:	e1a03823 	lsr	r3, r3, #16
    5a3c:	e4841004 	str	r1, [r4], #4
    5a40:	cafffff0 	bgt	5a08 <__multadd+0x1c>
    5a44:	e3530000 	cmp	r3, #0
    5a48:	0a000006 	beq	5a68 <__multadd+0x7c>
    5a4c:	e5982008 	ldr	r2, [r8, #8]
    5a50:	e1570002 	cmp	r7, r2
    5a54:	aa000007 	bge	5a78 <__multadd+0x8c>
    5a58:	e0882107 	add	r2, r8, r7, lsl #2
    5a5c:	e2877001 	add	r7, r7, #1
    5a60:	e5823014 	str	r3, [r2, #20]
    5a64:	e5887010 	str	r7, [r8, #16]
    5a68:	e1a00008 	mov	r0, r8
    5a6c:	e28dd00c 	add	sp, sp, #12
    5a70:	e8bd45f0 	pop	{r4, r5, r6, r7, r8, r10, lr}
    5a74:	e12fff1e 	bx	lr
    5a78:	e5981004 	ldr	r1, [r8, #4]
    5a7c:	e1a0000a 	mov	r0, r10
    5a80:	e2811001 	add	r1, r1, #1
    5a84:	e58d3004 	str	r3, [sp, #4]
    5a88:	ebffffad 	bl	5944 <_Balloc>
    5a8c:	e5982010 	ldr	r2, [r8, #16]
    5a90:	e2822002 	add	r2, r2, #2
    5a94:	e288100c 	add	r1, r8, #12
    5a98:	e1a04000 	mov	r4, r0
    5a9c:	e1a02102 	lsl	r2, r2, #2
    5aa0:	e280000c 	add	r0, r0, #12
    5aa4:	ebfffed4 	bl	55fc <memcpy>
    5aa8:	e5981004 	ldr	r1, [r8, #4]
    5aac:	e59a204c 	ldr	r2, [r10, #76]	; 0x4c
    5ab0:	e7920101 	ldr	r0, [r2, r1, lsl #2]
    5ab4:	e59d3004 	ldr	r3, [sp, #4]
    5ab8:	e5880000 	str	r0, [r8]
    5abc:	e7828101 	str	r8, [r2, r1, lsl #2]
    5ac0:	e1a08004 	mov	r8, r4
    5ac4:	eaffffe3 	b	5a58 <__multadd+0x6c>

00005ac8 <__s2b>:
    5ac8:	e92d45f8 	push	{r3, r4, r5, r6, r7, r8, r10, lr}
    5acc:	e283c008 	add	r12, r3, #8
    5ad0:	e1a07003 	mov	r7, r3
    5ad4:	e59f30d8 	ldr	r3, [pc, #216]	; 5bb4 <__s2b+0xec>
    5ad8:	e0c3e39c 	smull	lr, r3, r12, r3
    5adc:	e1a0cfcc 	asr	r12, r12, #31
    5ae0:	e06c30c3 	rsb	r3, r12, r3, asr #1
    5ae4:	e3530001 	cmp	r3, #1
    5ae8:	e1a05000 	mov	r5, r0
    5aec:	e1a04001 	mov	r4, r1
    5af0:	e1a08002 	mov	r8, r2
    5af4:	da00002c 	ble	5bac <__s2b+0xe4>
    5af8:	e3a0c001 	mov	r12, #1
    5afc:	e3a01000 	mov	r1, #0
    5b00:	e1a0c08c 	lsl	r12, r12, #1
    5b04:	e153000c 	cmp	r3, r12
    5b08:	e2811001 	add	r1, r1, #1
    5b0c:	cafffffb 	bgt	5b00 <__s2b+0x38>
    5b10:	e1a00005 	mov	r0, r5
    5b14:	ebffff8a 	bl	5944 <_Balloc>
    5b18:	e59d3020 	ldr	r3, [sp, #32]
    5b1c:	e3580009 	cmp	r8, #9
    5b20:	e5803014 	str	r3, [r0, #20]
    5b24:	e3a03001 	mov	r3, #1
    5b28:	e1a01000 	mov	r1, r0
    5b2c:	e5803010 	str	r3, [r0, #16]
    5b30:	d284400a 	addle	r4, r4, #10
    5b34:	d3a08009 	movle	r8, #9
    5b38:	da00000c 	ble	5b70 <__s2b+0xa8>
    5b3c:	e284a009 	add	r10, r4, #9
    5b40:	e1a0600a 	mov	r6, r10
    5b44:	e0844008 	add	r4, r4, r8
    5b48:	e4d63001 	ldrb	r3, [r6], #1
    5b4c:	e1a00005 	mov	r0, r5
    5b50:	e3a0200a 	mov	r2, #10
    5b54:	e2433030 	sub	r3, r3, #48	; 0x30
    5b58:	ebffffa3 	bl	59ec <__multadd>
    5b5c:	e1560004 	cmp	r6, r4
    5b60:	e1a01000 	mov	r1, r0
    5b64:	1afffff7 	bne	5b48 <__s2b+0x80>
    5b68:	e08a4008 	add	r4, r10, r8
    5b6c:	e2444008 	sub	r4, r4, #8
    5b70:	e1570008 	cmp	r7, r8
    5b74:	da000009 	ble	5ba0 <__s2b+0xd8>
    5b78:	e0687007 	rsb	r7, r8, r7
    5b7c:	e0847007 	add	r7, r4, r7
    5b80:	e4d43001 	ldrb	r3, [r4], #1
    5b84:	e1a00005 	mov	r0, r5
    5b88:	e3a0200a 	mov	r2, #10
    5b8c:	e2433030 	sub	r3, r3, #48	; 0x30
    5b90:	ebffff95 	bl	59ec <__multadd>
    5b94:	e1540007 	cmp	r4, r7
    5b98:	e1a01000 	mov	r1, r0
    5b9c:	1afffff7 	bne	5b80 <__s2b+0xb8>
    5ba0:	e1a00001 	mov	r0, r1
    5ba4:	e8bd45f8 	pop	{r3, r4, r5, r6, r7, r8, r10, lr}
    5ba8:	e12fff1e 	bx	lr
    5bac:	e3a01000 	mov	r1, #0
    5bb0:	eaffffd6 	b	5b10 <__s2b+0x48>
    5bb4:	38e38e39 	.word	0x38e38e39

00005bb8 <__hi0bits>:
    5bb8:	e1b02820 	lsrs	r2, r0, #16
    5bbc:	e1a03000 	mov	r3, r0
    5bc0:	01a03800 	lsleq	r3, r0, #16
    5bc4:	13a00000 	movne	r0, #0
    5bc8:	03a00010 	moveq	r0, #16
    5bcc:	e31304ff 	tst	r3, #-16777216	; 0xff000000
    5bd0:	01a03403 	lsleq	r3, r3, #8
    5bd4:	02800008 	addeq	r0, r0, #8
    5bd8:	e313020f 	tst	r3, #-268435456	; 0xf0000000
    5bdc:	01a03203 	lsleq	r3, r3, #4
    5be0:	02800004 	addeq	r0, r0, #4
    5be4:	e3130103 	tst	r3, #-1073741824	; 0xc0000000
    5be8:	01a03103 	lsleq	r3, r3, #2
    5bec:	02800002 	addeq	r0, r0, #2
    5bf0:	e3530000 	cmp	r3, #0
    5bf4:	b12fff1e 	bxlt	lr
    5bf8:	e3130101 	tst	r3, #1073741824	; 0x40000000
    5bfc:	12800001 	addne	r0, r0, #1
    5c00:	03a00020 	moveq	r0, #32
    5c04:	e12fff1e 	bx	lr

00005c08 <__lo0bits>:
    5c08:	e5903000 	ldr	r3, [r0]
    5c0c:	e1a02000 	mov	r2, r0
    5c10:	e2130007 	ands	r0, r3, #7
    5c14:	0a000009 	beq	5c40 <__lo0bits+0x38>
    5c18:	e3130001 	tst	r3, #1
    5c1c:	1a00001c 	bne	5c94 <__lo0bits+0x8c>
    5c20:	e3130002 	tst	r3, #2
    5c24:	11a030a3 	lsrne	r3, r3, #1
    5c28:	01a03123 	lsreq	r3, r3, #2
    5c2c:	13a00001 	movne	r0, #1
    5c30:	15823000 	strne	r3, [r2]
    5c34:	05823000 	streq	r3, [r2]
    5c38:	03a00002 	moveq	r0, #2
    5c3c:	e12fff1e 	bx	lr
    5c40:	e1b01803 	lsls	r1, r3, #16
    5c44:	01a03823 	lsreq	r3, r3, #16
    5c48:	03a00010 	moveq	r0, #16
    5c4c:	e31300ff 	tst	r3, #255	; 0xff
    5c50:	01a03423 	lsreq	r3, r3, #8
    5c54:	02800008 	addeq	r0, r0, #8
    5c58:	e313000f 	tst	r3, #15
    5c5c:	01a03223 	lsreq	r3, r3, #4
    5c60:	02800004 	addeq	r0, r0, #4
    5c64:	e3130003 	tst	r3, #3
    5c68:	01a03123 	lsreq	r3, r3, #2
    5c6c:	02800002 	addeq	r0, r0, #2
    5c70:	e3130001 	tst	r3, #1
    5c74:	1a000004 	bne	5c8c <__lo0bits+0x84>
    5c78:	e1b030a3 	lsrs	r3, r3, #1
    5c7c:	1a000001 	bne	5c88 <__lo0bits+0x80>
    5c80:	e3a00020 	mov	r0, #32
    5c84:	e12fff1e 	bx	lr
    5c88:	e2800001 	add	r0, r0, #1
    5c8c:	e5823000 	str	r3, [r2]
    5c90:	e12fff1e 	bx	lr
    5c94:	e3a00000 	mov	r0, #0
    5c98:	e12fff1e 	bx	lr

00005c9c <__i2b>:
    5c9c:	e92d4010 	push	{r4, lr}
    5ca0:	e1a04001 	mov	r4, r1
    5ca4:	e3a01001 	mov	r1, #1
    5ca8:	ebffff25 	bl	5944 <_Balloc>
    5cac:	e3a02001 	mov	r2, #1
    5cb0:	e5804014 	str	r4, [r0, #20]
    5cb4:	e5802010 	str	r2, [r0, #16]
    5cb8:	e8bd4010 	pop	{r4, lr}
    5cbc:	e12fff1e 	bx	lr

00005cc0 <__multiply>:
    5cc0:	e92d4ff0 	push	{r4, r5, r6, r7, r8, r9, r10, r11, lr}
    5cc4:	e5918010 	ldr	r8, [r1, #16]
    5cc8:	e592a010 	ldr	r10, [r2, #16]
    5ccc:	e158000a 	cmp	r8, r10
    5cd0:	e24dd014 	sub	sp, sp, #20
    5cd4:	e1a06001 	mov	r6, r1
    5cd8:	e1a04002 	mov	r4, r2
    5cdc:	aa000004 	bge	5cf4 <__multiply+0x34>
    5ce0:	e1a02008 	mov	r2, r8
    5ce4:	e1a06004 	mov	r6, r4
    5ce8:	e1a0800a 	mov	r8, r10
    5cec:	e1a04001 	mov	r4, r1
    5cf0:	e1a0a002 	mov	r10, r2
    5cf4:	e5963008 	ldr	r3, [r6, #8]
    5cf8:	e088500a 	add	r5, r8, r10
    5cfc:	e5961004 	ldr	r1, [r6, #4]
    5d00:	e1550003 	cmp	r5, r3
    5d04:	c2811001 	addgt	r1, r1, #1
    5d08:	ebffff0d 	bl	5944 <_Balloc>
    5d0c:	e0807105 	add	r7, r0, r5, lsl #2
    5d10:	e2803014 	add	r3, r0, #20
    5d14:	e2877014 	add	r7, r7, #20
    5d18:	e1530007 	cmp	r3, r7
    5d1c:	e58d0004 	str	r0, [sp, #4]
    5d20:	33a00000 	movcc	r0, #0
    5d24:	2a000002 	bcs	5d34 <__multiply+0x74>
    5d28:	e4830004 	str	r0, [r3], #4
    5d2c:	e1570003 	cmp	r7, r3
    5d30:	8afffffc 	bhi	5d28 <__multiply+0x68>
    5d34:	e084a10a 	add	r10, r4, r10, lsl #2
    5d38:	e28aa014 	add	r10, r10, #20
    5d3c:	e2844014 	add	r4, r4, #20
    5d40:	e086c108 	add	r12, r6, r8, lsl #2
    5d44:	e154000a 	cmp	r4, r10
    5d48:	e2863014 	add	r3, r6, #20
    5d4c:	e28cc014 	add	r12, r12, #20
    5d50:	2a000041 	bcs	5e5c <__multiply+0x19c>
    5d54:	e59d2004 	ldr	r2, [sp, #4]
    5d58:	e58d7008 	str	r7, [sp, #8]
    5d5c:	e58d500c 	str	r5, [sp, #12]
    5d60:	e2826018 	add	r6, r2, #24
    5d64:	e1a0700a 	mov	r7, r10
    5d68:	e1a05003 	mov	r5, r3
    5d6c:	e4948004 	ldr	r8, [r4], #4
    5d70:	e1a0a808 	lsl	r10, r8, #16
    5d74:	e1b0a82a 	lsrs	r10, r10, #16
    5d78:	0a000017 	beq	5ddc <__multiply+0x11c>
    5d7c:	e1a02005 	mov	r2, r5
    5d80:	e2463004 	sub	r3, r6, #4
    5d84:	e3a08000 	mov	r8, #0
    5d88:	e4920004 	ldr	r0, [r2], #4
    5d8c:	e5931000 	ldr	r1, [r3]
    5d90:	e1a0b800 	lsl	r11, r0, #16
    5d94:	e1a09801 	lsl	r9, r1, #16
    5d98:	e1a0b82b 	lsr	r11, r11, #16
    5d9c:	e1a09829 	lsr	r9, r9, #16
    5da0:	e0299b9a 	mla	r9, r10, r11, r9
    5da4:	e1a01821 	lsr	r1, r1, #16
    5da8:	e1a00820 	lsr	r0, r0, #16
    5dac:	e020109a 	mla	r0, r10, r0, r1
    5db0:	e0898008 	add	r8, r9, r8
    5db4:	e1a01808 	lsl	r1, r8, #16
    5db8:	e1a01821 	lsr	r1, r1, #16
    5dbc:	e0808828 	add	r8, r0, r8, lsr #16
    5dc0:	e1811808 	orr	r1, r1, r8, lsl #16
    5dc4:	e15c0002 	cmp	r12, r2
    5dc8:	e1a08828 	lsr	r8, r8, #16
    5dcc:	e4831004 	str	r1, [r3], #4
    5dd0:	8affffec 	bhi	5d88 <__multiply+0xc8>
    5dd4:	e5838000 	str	r8, [r3]
    5dd8:	e5148004 	ldr	r8, [r4, #-4]
    5ddc:	e1b08828 	lsrs	r8, r8, #16
    5de0:	0a000018 	beq	5e48 <__multiply+0x188>
    5de4:	e516a004 	ldr	r10, [r6, #-4]
    5de8:	e1a02005 	mov	r2, r5
    5dec:	e1a03006 	mov	r3, r6
    5df0:	e1a0100a 	mov	r1, r10
    5df4:	e3a09000 	mov	r9, #0
    5df8:	e1d200b0 	ldrh	r0, [r2]
    5dfc:	e1a01821 	lsr	r1, r1, #16
    5e00:	e0211098 	mla	r1, r8, r0, r1
    5e04:	e1a0a80a 	lsl	r10, r10, #16
    5e08:	e0819009 	add	r9, r1, r9
    5e0c:	e1a0a82a 	lsr	r10, r10, #16
    5e10:	e18aa809 	orr	r10, r10, r9, lsl #16
    5e14:	e503a004 	str	r10, [r3, #-4]
    5e18:	e1a0b003 	mov	r11, r3
    5e1c:	e4931004 	ldr	r1, [r3], #4
    5e20:	e492a004 	ldr	r10, [r2], #4
    5e24:	e1a00801 	lsl	r0, r1, #16
    5e28:	e1a0a82a 	lsr	r10, r10, #16
    5e2c:	e1a00820 	lsr	r0, r0, #16
    5e30:	e02a0a98 	mla	r10, r8, r10, r0
    5e34:	e15c0002 	cmp	r12, r2
    5e38:	e08aa829 	add	r10, r10, r9, lsr #16
    5e3c:	e1a0982a 	lsr	r9, r10, #16
    5e40:	8affffec 	bhi	5df8 <__multiply+0x138>
    5e44:	e58ba000 	str	r10, [r11]
    5e48:	e1570004 	cmp	r7, r4
    5e4c:	e2866004 	add	r6, r6, #4
    5e50:	8affffc5 	bhi	5d6c <__multiply+0xac>
    5e54:	e59d7008 	ldr	r7, [sp, #8]
    5e58:	e59d500c 	ldr	r5, [sp, #12]
    5e5c:	e3550000 	cmp	r5, #0
    5e60:	da000009 	ble	5e8c <__multiply+0x1cc>
    5e64:	e5173004 	ldr	r3, [r7, #-4]
    5e68:	e3530000 	cmp	r3, #0
    5e6c:	e2477004 	sub	r7, r7, #4
    5e70:	0a000003 	beq	5e84 <__multiply+0x1c4>
    5e74:	ea000004 	b	5e8c <__multiply+0x1cc>
    5e78:	e5373004 	ldr	r3, [r7, #-4]!
    5e7c:	e3530000 	cmp	r3, #0
    5e80:	1a000001 	bne	5e8c <__multiply+0x1cc>
    5e84:	e2555001 	subs	r5, r5, #1
    5e88:	1afffffa 	bne	5e78 <__multiply+0x1b8>
    5e8c:	e59d3004 	ldr	r3, [sp, #4]
    5e90:	e5835010 	str	r5, [r3, #16]
    5e94:	e1a00003 	mov	r0, r3
    5e98:	e28dd014 	add	sp, sp, #20
    5e9c:	e8bd4ff0 	pop	{r4, r5, r6, r7, r8, r9, r10, r11, lr}
    5ea0:	e12fff1e 	bx	lr

00005ea4 <__pow5mult>:
    5ea4:	e2123003 	ands	r3, r2, #3
    5ea8:	e92d41f0 	push	{r4, r5, r6, r7, r8, lr}
    5eac:	e1a04002 	mov	r4, r2
    5eb0:	e1a08000 	mov	r8, r0
    5eb4:	e1a07001 	mov	r7, r1
    5eb8:	1a000025 	bne	5f54 <__pow5mult+0xb0>
    5ebc:	e1b04144 	asrs	r4, r4, #2
    5ec0:	0a000018 	beq	5f28 <__pow5mult+0x84>
    5ec4:	e5986048 	ldr	r6, [r8, #72]	; 0x48
    5ec8:	e3560000 	cmp	r6, #0
    5ecc:	1a000006 	bne	5eec <__pow5mult+0x48>
    5ed0:	ea000026 	b	5f70 <__pow5mult+0xcc>
    5ed4:	e1b040c4 	asrs	r4, r4, #1
    5ed8:	0a000012 	beq	5f28 <__pow5mult+0x84>
    5edc:	e5965000 	ldr	r5, [r6]
    5ee0:	e3550000 	cmp	r5, #0
    5ee4:	11a06005 	movne	r6, r5
    5ee8:	0a000011 	beq	5f34 <__pow5mult+0x90>
    5eec:	e3140001 	tst	r4, #1
    5ef0:	0afffff7 	beq	5ed4 <__pow5mult+0x30>
    5ef4:	e1a01007 	mov	r1, r7
    5ef8:	e1a02006 	mov	r2, r6
    5efc:	e1a00008 	mov	r0, r8
    5f00:	ebffff6e 	bl	5cc0 <__multiply>
    5f04:	e3570000 	cmp	r7, #0
    5f08:	15972004 	ldrne	r2, [r7, #4]
    5f0c:	1598304c 	ldrne	r3, [r8, #76]	; 0x4c
    5f10:	17931102 	ldrne	r1, [r3, r2, lsl #2]
    5f14:	15871000 	strne	r1, [r7]
    5f18:	17837102 	strne	r7, [r3, r2, lsl #2]
    5f1c:	e1b040c4 	asrs	r4, r4, #1
    5f20:	e1a07000 	mov	r7, r0
    5f24:	1affffec 	bne	5edc <__pow5mult+0x38>
    5f28:	e1a00007 	mov	r0, r7
    5f2c:	e8bd41f0 	pop	{r4, r5, r6, r7, r8, lr}
    5f30:	e12fff1e 	bx	lr
    5f34:	e1a01006 	mov	r1, r6
    5f38:	e1a02006 	mov	r2, r6
    5f3c:	e1a00008 	mov	r0, r8
    5f40:	ebffff5e 	bl	5cc0 <__multiply>
    5f44:	e5860000 	str	r0, [r6]
    5f48:	e5805000 	str	r5, [r0]
    5f4c:	e1a06000 	mov	r6, r0
    5f50:	eaffffe5 	b	5eec <__pow5mult+0x48>
    5f54:	e59f2034 	ldr	r2, [pc, #52]	; 5f90 <__pow5mult+0xec>
    5f58:	e2433001 	sub	r3, r3, #1
    5f5c:	e7922103 	ldr	r2, [r2, r3, lsl #2]
    5f60:	e3a03000 	mov	r3, #0
    5f64:	ebfffea0 	bl	59ec <__multadd>
    5f68:	e1a07000 	mov	r7, r0
    5f6c:	eaffffd2 	b	5ebc <__pow5mult+0x18>
    5f70:	e1a00008 	mov	r0, r8
    5f74:	e59f1018 	ldr	r1, [pc, #24]	; 5f94 <__pow5mult+0xf0>
    5f78:	ebffff47 	bl	5c9c <__i2b>
    5f7c:	e3a03000 	mov	r3, #0
    5f80:	e5880048 	str	r0, [r8, #72]	; 0x48
    5f84:	e1a06000 	mov	r6, r0
    5f88:	e5803000 	str	r3, [r0]
    5f8c:	eaffffd6 	b	5eec <__pow5mult+0x48>
    5f90:	0000afc8 	.word	0x0000afc8
    5f94:	00000271 	.word	0x00000271

00005f98 <__lshift>:
    5f98:	e92d47f0 	push	{r4, r5, r6, r7, r8, r9, r10, lr}
    5f9c:	e591a010 	ldr	r10, [r1, #16]
    5fa0:	e1a042c2 	asr	r4, r2, #5
    5fa4:	e5913008 	ldr	r3, [r1, #8]
    5fa8:	e084a00a 	add	r10, r4, r10
    5fac:	e28a5001 	add	r5, r10, #1
    5fb0:	e1550003 	cmp	r5, r3
    5fb4:	e1a07001 	mov	r7, r1
    5fb8:	e1a09002 	mov	r9, r2
    5fbc:	e1a08000 	mov	r8, r0
    5fc0:	e5911004 	ldr	r1, [r1, #4]
    5fc4:	da000003 	ble	5fd8 <__lshift+0x40>
    5fc8:	e1a03083 	lsl	r3, r3, #1
    5fcc:	e1550003 	cmp	r5, r3
    5fd0:	e2811001 	add	r1, r1, #1
    5fd4:	cafffffb 	bgt	5fc8 <__lshift+0x30>
    5fd8:	e1a00008 	mov	r0, r8
    5fdc:	ebfffe58 	bl	5944 <_Balloc>
    5fe0:	e3540000 	cmp	r4, #0
    5fe4:	e280c014 	add	r12, r0, #20
    5fe8:	da000007 	ble	600c <__lshift+0x74>
    5fec:	e3a03000 	mov	r3, #0
    5ff0:	e1a06003 	mov	r6, r3
    5ff4:	e2833001 	add	r3, r3, #1
    5ff8:	e1530004 	cmp	r3, r4
    5ffc:	e48c6004 	str	r6, [r12], #4
    6000:	1afffffb 	bne	5ff4 <__lshift+0x5c>
    6004:	e0803103 	add	r3, r0, r3, lsl #2
    6008:	e283c014 	add	r12, r3, #20
    600c:	e5972010 	ldr	r2, [r7, #16]
    6010:	e219901f 	ands	r9, r9, #31
    6014:	e0872102 	add	r2, r7, r2, lsl #2
    6018:	e2874014 	add	r4, r7, #20
    601c:	e2822014 	add	r2, r2, #20
    6020:	0a000014 	beq	6078 <__lshift+0xe0>
    6024:	e2693020 	rsb	r3, r9, #32
    6028:	e3a01000 	mov	r1, #0
    602c:	e5946000 	ldr	r6, [r4]
    6030:	e1811916 	orr	r1, r1, r6, lsl r9
    6034:	e48c1004 	str	r1, [r12], #4
    6038:	e4941004 	ldr	r1, [r4], #4
    603c:	e1520004 	cmp	r2, r4
    6040:	e1a01331 	lsr	r1, r1, r3
    6044:	8afffff8 	bhi	602c <__lshift+0x94>
    6048:	e3510000 	cmp	r1, #0
    604c:	e58c1000 	str	r1, [r12]
    6050:	128a5002 	addne	r5, r10, #2
    6054:	e598304c 	ldr	r3, [r8, #76]	; 0x4c
    6058:	e5972004 	ldr	r2, [r7, #4]
    605c:	e7931102 	ldr	r1, [r3, r2, lsl #2]
    6060:	e2455001 	sub	r5, r5, #1
    6064:	e5805010 	str	r5, [r0, #16]
    6068:	e5871000 	str	r1, [r7]
    606c:	e7837102 	str	r7, [r3, r2, lsl #2]
    6070:	e8bd47f0 	pop	{r4, r5, r6, r7, r8, r9, r10, lr}
    6074:	e12fff1e 	bx	lr
    6078:	e4943004 	ldr	r3, [r4], #4
    607c:	e1520004 	cmp	r2, r4
    6080:	e48c3004 	str	r3, [r12], #4
    6084:	9afffff2 	bls	6054 <__lshift+0xbc>
    6088:	e4943004 	ldr	r3, [r4], #4
    608c:	e1520004 	cmp	r2, r4
    6090:	e48c3004 	str	r3, [r12], #4
    6094:	8afffff7 	bhi	6078 <__lshift+0xe0>
    6098:	eaffffed 	b	6054 <__lshift+0xbc>

0000609c <__mcmp>:
    609c:	e52d4004 	push	{r4}		; (str r4, [sp, #-4]!)
    60a0:	e5913010 	ldr	r3, [r1, #16]
    60a4:	e1a04000 	mov	r4, r0
    60a8:	e5900010 	ldr	r0, [r0, #16]
    60ac:	e0500003 	subs	r0, r0, r3
    60b0:	1a00000c 	bne	60e8 <__mcmp+0x4c>
    60b4:	e2833004 	add	r3, r3, #4
    60b8:	e1a02103 	lsl	r2, r3, #2
    60bc:	e0843002 	add	r3, r4, r2
    60c0:	e0811002 	add	r1, r1, r2
    60c4:	e2844014 	add	r4, r4, #20
    60c8:	e2833004 	add	r3, r3, #4
    60cc:	e2811004 	add	r1, r1, #4
    60d0:	e5332004 	ldr	r2, [r3, #-4]!
    60d4:	e531c004 	ldr	r12, [r1, #-4]!
    60d8:	e152000c 	cmp	r2, r12
    60dc:	1a000003 	bne	60f0 <__mcmp+0x54>
    60e0:	e1540003 	cmp	r4, r3
    60e4:	3afffff9 	bcc	60d0 <__mcmp+0x34>
    60e8:	e8bd0010 	ldmfd	sp!, {r4}
    60ec:	e12fff1e 	bx	lr
    60f0:	e15c0002 	cmp	r12, r2
    60f4:	93a00001 	movls	r0, #1
    60f8:	83e00000 	mvnhi	r0, #0
    60fc:	eafffff9 	b	60e8 <__mcmp+0x4c>

00006100 <__mdiff>:
    6100:	e92d47f0 	push	{r4, r5, r6, r7, r8, r9, r10, lr}
    6104:	e1a06001 	mov	r6, r1
    6108:	e1a05000 	mov	r5, r0
    610c:	e1a01002 	mov	r1, r2
    6110:	e1a00006 	mov	r0, r6
    6114:	e1a04002 	mov	r4, r2
    6118:	ebffffdf 	bl	609c <__mcmp>
    611c:	e2507000 	subs	r7, r0, #0
    6120:	0a000042 	beq	6230 <__mdiff+0x130>
    6124:	b1a03006 	movlt	r3, r6
    6128:	b1a06004 	movlt	r6, r4
    612c:	e5961004 	ldr	r1, [r6, #4]
    6130:	e1a00005 	mov	r0, r5
    6134:	b1a04003 	movlt	r4, r3
    6138:	a3a09000 	movge	r9, #0
    613c:	b3a09001 	movlt	r9, #1
    6140:	ebfffdff 	bl	5944 <_Balloc>
    6144:	e5967010 	ldr	r7, [r6, #16]
    6148:	e594a010 	ldr	r10, [r4, #16]
    614c:	e0868107 	add	r8, r6, r7, lsl #2
    6150:	e084a10a 	add	r10, r4, r10, lsl #2
    6154:	e580900c 	str	r9, [r0, #12]
    6158:	e2888014 	add	r8, r8, #20
    615c:	e28aa014 	add	r10, r10, #20
    6160:	e2866014 	add	r6, r6, #20
    6164:	e2842014 	add	r2, r4, #20
    6168:	e2801014 	add	r1, r0, #20
    616c:	e3a05000 	mov	r5, #0
    6170:	e496c004 	ldr	r12, [r6], #4
    6174:	e4924004 	ldr	r4, [r2], #4
    6178:	e1a0380c 	lsl	r3, r12, #16
    617c:	e0855823 	add	r5, r5, r3, lsr #16
    6180:	e1a09804 	lsl	r9, r4, #16
    6184:	e0453829 	sub	r3, r5, r9, lsr #16
    6188:	e1a05824 	lsr	r5, r4, #16
    618c:	e065582c 	rsb	r5, r5, r12, lsr #16
    6190:	e1a04803 	lsl	r4, r3, #16
    6194:	e0855843 	add	r5, r5, r3, asr #16
    6198:	e1a04824 	lsr	r4, r4, #16
    619c:	e1a03001 	mov	r3, r1
    61a0:	e1844805 	orr	r4, r4, r5, lsl #16
    61a4:	e4834004 	str	r4, [r3], #4
    61a8:	e15a0002 	cmp	r10, r2
    61ac:	e1a0c006 	mov	r12, r6
    61b0:	e1a05845 	asr	r5, r5, #16
    61b4:	e1a01003 	mov	r1, r3
    61b8:	8affffec 	bhi	6170 <__mdiff+0x70>
    61bc:	e1580006 	cmp	r8, r6
    61c0:	9a000010 	bls	6208 <__mdiff+0x108>
    61c4:	e49c2004 	ldr	r2, [r12], #4
    61c8:	e1a04802 	lsl	r4, r2, #16
    61cc:	e0855824 	add	r5, r5, r4, lsr #16
    61d0:	e1a04805 	lsl	r4, r5, #16
    61d4:	e1a02822 	lsr	r2, r2, #16
    61d8:	e0825845 	add	r5, r2, r5, asr #16
    61dc:	e1a04824 	lsr	r4, r4, #16
    61e0:	e1844805 	orr	r4, r4, r5, lsl #16
    61e4:	e158000c 	cmp	r8, r12
    61e8:	e1a05845 	asr	r5, r5, #16
    61ec:	e4834004 	str	r4, [r3], #4
    61f0:	8afffff3 	bhi	61c4 <__mdiff+0xc4>
    61f4:	e1e03006 	mvn	r3, r6
    61f8:	e0833008 	add	r3, r3, r8
    61fc:	e3c33003 	bic	r3, r3, #3
    6200:	e2833004 	add	r3, r3, #4
    6204:	e0813003 	add	r3, r1, r3
    6208:	e3540000 	cmp	r4, #0
    620c:	e2433004 	sub	r3, r3, #4
    6210:	1a000003 	bne	6224 <__mdiff+0x124>
    6214:	e5332004 	ldr	r2, [r3, #-4]!
    6218:	e3520000 	cmp	r2, #0
    621c:	e2477001 	sub	r7, r7, #1
    6220:	0afffffb 	beq	6214 <__mdiff+0x114>
    6224:	e5807010 	str	r7, [r0, #16]
    6228:	e8bd47f0 	pop	{r4, r5, r6, r7, r8, r9, r10, lr}
    622c:	e12fff1e 	bx	lr
    6230:	e1a00005 	mov	r0, r5
    6234:	e1a01007 	mov	r1, r7
    6238:	ebfffdc1 	bl	5944 <_Balloc>
    623c:	e3a03001 	mov	r3, #1
    6240:	e5803010 	str	r3, [r0, #16]
    6244:	e5807014 	str	r7, [r0, #20]
    6248:	eafffff6 	b	6228 <__mdiff+0x128>

0000624c <__ulp>:
    624c:	e59f3058 	ldr	r3, [pc, #88]	; 62ac <__ulp+0x60>
    6250:	e0013003 	and	r3, r1, r3
    6254:	e243350d 	sub	r3, r3, #54525952	; 0x3400000
    6258:	e3530000 	cmp	r3, #0
    625c:	da000002 	ble	626c <__ulp+0x20>
    6260:	e1a01003 	mov	r1, r3
    6264:	e3a00000 	mov	r0, #0
    6268:	e12fff1e 	bx	lr
    626c:	e2633000 	rsb	r3, r3, #0
    6270:	e1a03a43 	asr	r3, r3, #20
    6274:	e3530013 	cmp	r3, #19
    6278:	da000007 	ble	629c <__ulp+0x50>
